(lp0
(dp1
S'volume'
p2
I50702100
sS'high'
p3
F346.0
sS'low'
p4
F338.0
sS'ajust. close'
p5
F342.0
sS'date'
p6
cdatetime
date
p7
(S'\x07\xdc\x04\x0b'
p8
tp9
Rp10
sS'close'
p11
F342.0
sS'open'
p12
F342.0
sa(dp13
g2
I55752200
sg3
F362.0
sg4
F348.0
sg5
F352.0
sg6
g7
(S'\x07\xdc\x04\n'
p14
tp15
Rp16
sg11
F352.0
sg12
F352.0
sa(dp17
g2
I38885700
sg3
F354.0
sg4
F346.0
sg5
F349.0
sg6
g7
(S'\x07\xdc\x04\t'
p18
tp19
Rp20
sg11
F349.0
sg12
F350.0
sa(dp21
g2
I34109200
sg3
F361.0
sg4
F352.0
sg5
F356.0
sg6
g7
(S'\x07\xdc\x04\x06'
p22
tp23
Rp24
sg11
F356.0
sg12
F355.0
sa(dp25
g2
I50406300
sg3
F365.0
sg4
F350.0
sg5
F362.0
sg6
g7
(S'\x07\xdc\x04\x05'
p26
tp27
Rp28
sg11
F362.0
sg12
F352.0
sa(dp29
g2
I39268800
sg3
F374.0
sg4
F358.0
sg5
F360.0
sg6
g7
(S'\x07\xdc\x04\x04'
p30
tp31
Rp32
sg11
F360.0
sg12
F371.0
sa(dp33
g2
I21483900
sg3
F375.0
sg4
F370.0
sg5
F372.0
sg6
g7
(S'\x07\xdc\x04\x03'
p34
tp35
Rp36
sg11
F372.0
sg12
F375.0
sa(dp37
g2
I38930200
sg3
F381.0
sg4
F373.0
sg5
F375.0
sg6
g7
(S'\x07\xdc\x04\x02'
p38
tp39
Rp40
sg11
F375.0
sg12
F374.0
sa(dp41
g2
I35842800
sg3
F375.0
sg4
F365.0
sg5
F366.0
sg6
g7
(S'\x07\xdc\x03\x1e'
p42
tp43
Rp44
sg11
F366.0
sg12
F374.0
sa(dp45
g2
I23621100
sg3
F378.0
sg4
F371.0
sg5
F374.0
sg6
g7
(S'\x07\xdc\x03\x1d'
p46
tp47
Rp48
sg11
F374.0
sg12
F377.0
sa(dp49
g2
I38067600
sg3
F384.0
sg4
F374.0
sg5
F379.0
sg6
g7
(S'\x07\xdc\x03\x1c'
p50
tp51
Rp52
sg11
F379.0
sg12
F380.0
sa(dp53
g2
I55848500
sg3
F382.0
sg4
F374.0
sg5
F381.0
sg6
g7
(S'\x07\xdc\x03\x1b'
p54
tp55
Rp56
sg11
F381.0
sg12
F375.0
sa(dp57
g2
I71378100
sg3
F379.0
sg4
F362.0
sg5
F366.0
sg6
g7
(S'\x07\xdc\x03\x1a'
p58
tp59
Rp60
sg11
F366.0
sg12
F376.0
sa(dp61
g2
I60959800
sg3
F386.0
sg4
F375.0
sg5
F376.0
sg6
g7
(S'\x07\xdc\x03\x17'
p62
tp63
Rp64
sg11
F376.0
sg12
F383.0
sa(dp65
g2
I116602400
sg3
F392.0
sg4
F381.0
sg5
F391.0
sg6
g7
(S'\x07\xdc\x03\x16'
p66
tp67
Rp68
sg11
F391.0
sg12
F382.0
sa(dp69
g2
I73470700
sg3
F413.0
sg4
F395.0
sg5
F396.0
sg6
g7
(S'\x07\xdc\x03\x15'
p70
tp71
Rp72
sg11
F396.0
sg12
F411.0
sa(dp73
g2
I61041300
sg3
F417.0
sg4
F401.0
sg5
F413.0
sg6
g7
(S'\x07\xdc\x03\x13'
p74
tp75
Rp76
sg11
F413.0
sg12
F404.0
sa(dp77
g2
I43064500
sg3
F404.0
sg4
F395.0
sg5
F404.0
sg6
g7
(S'\x07\xdc\x03\x10'
p78
tp79
Rp80
sg11
F404.0
sg12
F398.0
sa(dp81
g2
I41028600
sg3
F404.0
sg4
F395.0
sg5
F400.0
sg6
g7
(S'\x07\xdc\x03\x0f'
p82
tp83
Rp84
sg11
F400.0
sg12
F402.0
sa(dp85
g2
I52512800
sg3
F401.0
sg4
F395.0
sg5
F399.0
sg6
g7
(S'\x07\xdc\x03\x0e'
p86
tp87
Rp88
sg11
F399.0
sg12
F399.0
sa(dp89
g2
I52332400
sg3
F391.0
sg4
F383.0
sg5
F386.0
sg6
g7
(S'\x07\xdc\x03\r'
p90
tp91
Rp92
sg11
F386.0
sg12
F384.0
sa(dp93
g2
I37239100
sg3
F391.0
sg4
F383.0
sg5
F384.0
sg6
g7
(S'\x07\xdc\x03\x0c'
p94
tp95
Rp96
sg11
F384.0
sg12
F388.0
sa(dp97
g2
I68857900
sg3
F386.0
sg4
F378.0
sg5
F385.0
sg6
g7
(S'\x07\xdc\x03\t'
p98
tp99
Rp100
sg11
F385.0
sg12
F383.0
sa(dp101
g2
I63879900
sg3
F379.0
sg4
F365.0
sg5
F378.0
sg6
g7
(S'\x07\xdc\x03\x08'
p102
tp103
Rp104
sg11
F378.0
sg12
F366.0
sa(dp105
g2
I55699900
sg3
F363.0
sg4
F356.0
sg5
F361.0
sg6
g7
(S'\x07\xdc\x03\x07'
p106
tp107
Rp108
sg11
F361.0
sg12
F358.0
sa(dp109
g2
I81807700
sg3
F379.0
sg4
F366.0
sg5
F368.0
sg6
g7
(S'\x07\xdc\x03\x06'
p110
tp111
Rp112
sg11
F368.0
sg12
F373.0
sa(dp113
g2
I39607200
sg3
F379.0
sg4
F372.0
sg5
F373.0
sg6
g7
(S'\x07\xdc\x03\x05'
p114
tp115
Rp116
sg11
F373.0
sg12
F377.0
sa(dp117
g2
I80111600
sg3
F379.0
sg4
F372.0
sg5
F378.0
sg6
g7
(S'\x07\xdc\x03\x02'
p118
tp119
Rp120
sg11
F378.0
sg12
F375.0
sa(dp121
g2
I64017500
sg3
F382.0
sg4
F364.0
sg5
F369.0
sg6
g7
(S'\x07\xdc\x03\x01'
p122
tp123
Rp124
sg11
F369.0
sg12
F375.0
sa(dp125
g2
I59508500
sg3
F387.0
sg4
F374.0
sg5
F375.0
sg6
g7
(S'\x07\xdc\x02\x1d'
p126
tp127
Rp128
sg11
F375.0
sg12
F386.0
sa(dp129
g2
I69747900
sg3
F384.0
sg4
F368.0
sg5
F383.0
sg6
g7
(S'\x07\xdc\x02\x1c'
p130
tp131
Rp132
sg11
F383.0
sg12
F370.0
sa(dp133
g2
I60840200
sg3
F390.0
sg4
F377.0
sg5
F378.0
sg6
g7
(S'\x07\xdc\x02\x1b'
p134
tp135
Rp136
sg11
F378.0
sg12
F389.0
sa(dp137
g2
I89648500
sg3
F387.0
sg4
F377.0
sg5
F382.0
sg6
g7
(S'\x07\xdc\x02\x18'
p138
tp139
Rp140
sg11
F382.0
sg12
F379.0
sa(dp141
g2
I89924900
sg3
F379.0
sg4
F357.0
sg5
F376.0
sg6
g7
(S'\x07\xdc\x02\x17'
p142
tp143
Rp144
sg11
F376.0
sg12
F361.0
sa(dp145
g2
I55208400
sg3
F362.0
sg4
F346.0
sg5
F361.0
sg6
g7
(S'\x07\xdc\x02\x16'
p146
tp147
Rp148
sg11
F361.0
sg12
F348.0
sa(dp149
g2
I34046700
sg3
F353.0
sg4
F345.0
sg5
F349.0
sg6
g7
(S'\x07\xdc\x02\x15'
p150
tp151
Rp152
sg11
F349.0
sg12
F353.0
sa(dp153
g2
I36665500
sg3
F355.0
sg4
F351.0
sg5
F353.0
sg6
g7
(S'\x07\xdc\x02\x14'
p154
tp155
Rp156
sg11
F353.0
sg12
F354.0
sa(dp157
g2
I63920900
sg3
F349.0
sg4
F340.0
sg5
F345.0
sg6
g7
(S'\x07\xdc\x02\x11'
p158
tp159
Rp160
sg11
F345.0
sg12
F347.0
sa(dp161
g2
I64379500
sg3
F342.0
sg4
F329.0
sg5
F334.0
sg6
g7
(S'\x07\xdc\x02\x10'
p162
tp163
Rp164
sg11
F334.0
sg12
F330.0
sa(dp165
g2
I80756600
sg3
F338.0
sg4
F323.0
sg5
F334.0
sg6
g7
(S'\x07\xdc\x02\x0f'
p166
tp167
Rp168
sg11
F334.0
sg12
F325.0
sa(dp169
g2
I36374000
sg3
F318.0
sg4
F309.0
sg5
F317.0
sg6
g7
(S'\x07\xdc\x02\x0e'
p170
tp171
Rp172
sg11
F317.0
sg12
F311.0
sa(dp173
g2
I32899200
sg3
F317.0
sg4
F308.0
sg5
F313.0
sg6
g7
(S'\x07\xdc\x02\r'
p174
tp175
Rp176
sg11
F313.0
sg12
F309.0
sa(dp177
g2
I41641600
sg3
F321.0
sg4
F310.0
sg5
F313.0
sg6
g7
(S'\x07\xdc\x02\n'
p178
tp179
Rp180
sg11
F313.0
sg12
F320.0
sa(dp181
g2
I56472100
sg3
F321.0
sg4
F308.0
sg5
F318.0
sg6
g7
(S'\x07\xdc\x02\t'
p182
tp183
Rp184
sg11
F318.0
sg12
F320.0
sa(dp185
g2
I34063300
sg3
F317.0
sg4
F310.0
sg5
F316.0
sg6
g7
(S'\x07\xdc\x02\x08'
p186
tp187
Rp188
sg11
F316.0
sg12
F312.0
sa(dp189
g2
I33646300
sg3
F313.0
sg4
F306.0
sg5
F311.0
sg6
g7
(S'\x07\xdc\x02\x07'
p190
tp191
Rp192
sg11
F311.0
sg12
F307.0
sa(dp193
g2
I42276400
sg3
F311.0
sg4
F306.0
sg5
F307.0
sg6
g7
(S'\x07\xdc\x02\x06'
p194
tp195
Rp196
sg11
F307.0
sg12
F309.0
sa(dp197
g2
I35897600
sg3
F303.0
sg4
F297.0
sg5
F298.0
sg6
g7
(S'\x07\xdc\x02\x03'
p198
tp199
Rp200
sg11
F298.0
sg12
F298.0
sa(dp201
g2
I97727400
sg3
F303.0
sg4
F297.0
sg5
F300.0
sg6
g7
(S'\x07\xdc\x02\x02'
p202
tp203
Rp204
sg11
F300.0
sg12
F298.0
sa(dp205
g2
I23967600
sg3
F282.0
sg4
F273.0
sg5
F280.0
sg6
g7
(S'\x07\xdc\x02\x01'
p206
tp207
Rp208
sg11
F280.0
sg12
F273.0
sa(dp209
g2
I31596100
sg3
F283.0
sg4
F273.0
sg5
F279.0
sg6
g7
(S'\x07\xdc\x01\x1f'
p210
tp211
Rp212
sg11
F279.0
sg12
F275.0
sa(dp213
g2
I26958900
sg3
F280.0
sg4
F273.0
sg5
F277.0
sg6
g7
(S'\x07\xdc\x01\x1e'
p214
tp215
Rp216
sg11
F277.0
sg12
F274.0
sa(dp217
g2
I41767300
sg3
F280.0
sg4
F272.0
sg5
F272.0
sg6
g7
(S'\x07\xdc\x01\x1b'
p218
tp219
Rp220
sg11
F272.0
sg12
F279.0
sa(dp221
g2
I31731800
sg3
F288.0
sg4
F279.0
sg5
F280.0
sg6
g7
(S'\x07\xdc\x01\x1a'
p222
tp223
Rp224
sg11
F280.0
sg12
F287.0
sa(dp225
g2
I27294800
sg3
F287.0
sg4
F280.0
sg5
F286.0
sg6
g7
(S'\x07\xdc\x01\x19'
p226
tp227
Rp228
sg11
F286.0
sg12
F281.0
sa(dp229
g2
I35693000
sg3
F289.0
sg4
F279.0
sg5
F280.0
sg6
g7
(S'\x07\xdc\x01\x18'
p230
tp231
Rp232
sg11
F280.0
sg12
F288.0
sa(dp233
g2
I38534300
sg3
F288.0
sg4
F282.0
sg5
F286.0
sg6
g7
(S'\x07\xdc\x01\x17'
p234
tp235
Rp236
sg11
F286.0
sg12
F283.0
sa(dp237
g2
I59629600
sg3
F282.0
sg4
F273.0
sg5
F281.0
sg6
g7
(S'\x07\xdc\x01\x14'
p238
tp239
Rp240
sg11
F281.0
sg12
F278.0
sa(dp241
g2
I44574000
sg3
F268.0
sg4
F262.0
sg5
F267.0
sg6
g7
(S'\x07\xdc\x01\x13'
p242
tp243
Rp244
sg11
F267.0
sg12
F262.0
sa(dp245
g2
I34946900
sg3
F261.0
sg4
F247.0
sg5
F256.0
sg6
g7
(S'\x07\xdc\x01\x12'
p246
tp247
Rp248
sg11
F256.0
sg12
F250.0
sa(dp249
g2
I29765000
sg3
F251.0
sg4
F246.0
sg5
F250.0
sg6
g7
(S'\x07\xdc\x01\x11'
p250
tp251
Rp252
sg11
F250.0
sg12
F249.0
sa(dp253
g2
I22488400
sg3
F249.0
sg4
F245.0
sg5
F246.0
sg6
g7
(S'\x07\xdc\x01\x10'
p254
tp255
Rp256
sg11
F246.0
sg12
F248.0
sa(dp257
g2
I23179900
sg3
F255.0
sg4
F251.0
sg5
F253.0
sg6
g7
(S'\x07\xdc\x01\r'
p258
tp259
Rp260
sg11
F253.0
sg12
F254.0
sa(dp261
g2
I44052700
sg3
F257.0
sg4
F247.0
sg5
F250.0
sg6
g7
(S'\x07\xdc\x01\x0c'
p262
tp263
Rp264
sg11
F250.0
sg12
F256.0
sa(dp265
g2
I43039300
sg3
F260.0
sg4
F252.0
sg5
F259.0
sg6
g7
(S'\x07\xdc\x01\x0b'
p266
tp267
Rp268
sg11
F259.0
sg12
F252.0
sa(dp269
g2
I26550100
sg3
F258.0
sg4
F249.0
sg5
F251.0
sg6
g7
(S'\x07\xdc\x01\n'
p270
tp271
Rp272
sg11
F251.0
sg12
F257.0
sa(dp273
g2
I33473300
sg3
F253.0
sg4
F242.0
sg5
F245.0
sg6
g7
(S'\x07\xdc\x01\x06'
p274
tp275
Rp276
sg11
F245.0
sg12
F247.0
sa(dp277
g2
I19568500
sg3
F248.0
sg4
F243.0
sg5
F245.0
sg6
g7
(S'\x07\xdc\x01\x05'
p278
tp279
Rp280
sg11
F245.0
sg12
F247.0
sa(dp281
g2
I50871300
sg3
F250.0
sg4
F238.0
sg5
F249.0
sg6
g7
(S'\x07\xdc\x01\x04'
p282
tp283
Rp284
sg11
F249.0
sg12
F240.0
sa(dp285
g2
I19344700
sg3
F235.0
sg4
F231.0
sg5
F233.0
sg6
g7
(S'\x07\xdb\x0c\x1e'
p286
tp287
Rp288
sg11
F233.0
sg12
F234.0
sa(dp289
g2
I14165600
sg3
F236.0
sg4
F231.0
sg5
F235.0
sg6
g7
(S'\x07\xdb\x0c\x1d'
p290
tp291
Rp292
sg11
F235.0
sg12
F233.0
sa(dp293
g2
I9438100
sg3
F238.0
sg4
F234.0
sg5
F235.0
sg6
g7
(S'\x07\xdb\x0c\x1c'
p294
tp295
Rp296
sg11
F235.0
sg12
F237.0
sa(dp297
g2
I15187600
sg3
F241.0
sg4
F236.0
sg5
F239.0
sg6
g7
(S'\x07\xdb\x0c\x1b'
p298
tp299
Rp300
sg11
F239.0
sg12
F237.0
sa(dp301
g2
I43047000
sg3
F242.0
sg4
F233.0
sg5
F238.0
sg6
g7
(S'\x07\xdb\x0c\x1a'
p302
tp303
Rp304
sg11
F238.0
sg12
F242.0
sa(dp305
g2
I11056500
sg3
F244.0
sg4
F242.0
sg5
F243.0
sg6
g7
(S'\x07\xdb\x0c\x16'
p306
tp307
Rp308
sg11
F243.0
sg12
F243.0
sa(dp309
g2
I18718400
sg3
F249.0
sg4
F242.0
sg5
F245.0
sg6
g7
(S'\x07\xdb\x0c\x15'
p310
tp311
Rp312
sg11
F245.0
sg12
F248.0
sa(dp313
g2
I17020500
sg3
F246.0
sg4
F242.0
sg5
F242.0
sg6
g7
(S'\x07\xdb\x0c\x14'
p314
tp315
Rp316
sg11
F242.0
sg12
F245.0
sa(dp317
g2
I27353600
sg3
F252.0
sg4
F243.0
sg5
F245.0
sg6
g7
(S'\x07\xdb\x0c\x13'
p318
tp319
Rp320
sg11
F245.0
sg12
F251.0
sa(dp321
g2
I14795100
sg3
F256.0
sg4
F251.0
sg5
F256.0
sg6
g7
(S'\x07\xdb\x0c\x10'
p322
tp323
Rp324
sg11
F256.0
sg12
F253.0
sa(dp325
g2
I13298000
sg3
F258.0
sg4
F253.0
sg5
F253.0
sg6
g7
(S'\x07\xdb\x0c\x0f'
p326
tp327
Rp328
sg11
F253.0
sg12
F256.0
sa(dp329
g2
I16176100
sg3
F262.0
sg4
F257.0
sg5
F260.0
sg6
g7
(S'\x07\xdb\x0c\x0e'
p330
tp331
Rp332
sg11
F260.0
sg12
F261.0
sa(dp333
g2
I17835600
sg3
F264.0
sg4
F259.0
sg5
F262.0
sg6
g7
(S'\x07\xdb\x0c\r'
p334
tp335
Rp336
sg11
F262.0
sg12
F259.0
sa(dp337
g2
I26849400
sg3
F267.0
sg4
F259.0
sg5
F266.0
sg6
g7
(S'\x07\xdb\x0c\x0c'
p338
tp339
Rp340
sg11
F266.0
sg12
F263.0
sa(dp341
g2
I29919600
sg3
F261.0
sg4
F257.0
sg5
F257.0
sg6
g7
(S'\x07\xdb\x0c\t'
p342
tp343
Rp344
sg11
F257.0
sg12
F261.0
sa(dp345
g2
I38131800
sg3
F267.0
sg4
F260.0
sg5
F265.0
sg6
g7
(S'\x07\xdb\x0c\x08'
p346
tp347
Rp348
sg11
F265.0
sg12
F262.0
sa(dp349
g2
I34733500
sg3
F262.0
sg4
F252.0
sg5
F262.0
sg6
g7
(S'\x07\xdb\x0c\x07'
p350
tp351
Rp352
sg11
F262.0
sg12
F256.0
sa(dp353
g2
I49824100
sg3
F265.0
sg4
F254.0
sg5
F257.0
sg6
g7
(S'\x07\xdb\x0c\x06'
p354
tp355
Rp356
sg11
F257.0
sg12
F260.0
sa(dp357
g2
I30710900
sg3
F265.0
sg4
F257.0
sg5
F262.0
sg6
g7
(S'\x07\xdb\x0c\x05'
p358
tp359
Rp360
sg11
F262.0
sg12
F259.0
sa(dp361
g2
I19670600
sg3
F257.0
sg4
F252.0
sg5
F255.0
sg6
g7
(S'\x07\xdb\x0c\x02'
p362
tp363
Rp364
sg11
F255.0
sg12
F255.0
sa(dp365
g2
I46286500
sg3
F265.0
sg4
F254.0
sg5
F255.0
sg6
g7
(S'\x07\xdb\x0c\x01'
p366
tp367
Rp368
sg11
F255.0
sg12
F264.0
sa(dp369
g2
I40216800
sg3
F248.0
sg4
F242.0
sg5
F248.0
sg6
g7
(S'\x07\xdb\x0b\x1e'
p370
tp371
Rp372
sg11
F248.0
sg12
F244.0
sa(dp373
g2
I23111600
sg3
F247.0
sg4
F242.0
sg5
F246.0
sg6
g7
(S'\x07\xdb\x0b\x1d'
p374
tp375
Rp376
sg11
F246.0
sg12
F246.0
sa(dp377
g2
I36573100
sg3
F242.0
sg4
F235.0
sg5
F240.0
sg6
g7
(S'\x07\xdb\x0b\x1c'
p378
tp379
Rp380
sg11
F240.0
sg12
F237.0
sa(dp381
g2
I50360200
sg3
F233.0
sg4
F223.0
sg5
F230.0
sg6
g7
(S'\x07\xdb\x0b\x19'
p382
tp383
Rp384
sg11
F230.0
sg12
F224.0
sa(dp385
g2
I53483400
sg3
F233.0
sg4
F223.0
sg5
F224.0
sg6
g7
(S'\x07\xdb\x0b\x18'
p386
tp387
Rp388
sg11
F224.0
sg12
F232.0
sa(dp389
g2
I39555500
sg3
F240.0
sg4
F234.0
sg5
F237.0
sg6
g7
(S'\x07\xdb\x0b\x16'
p390
tp391
Rp392
sg11
F237.0
sg12
F237.0
sa(dp393
g2
I18077100
sg3
F242.0
sg4
F237.0
sg5
F241.0
sg6
g7
(S'\x07\xdb\x0b\x15'
p394
tp395
Rp396
sg11
F241.0
sg12
F238.0
sa(dp397
g2
I27098200
sg3
F244.0
sg4
F240.0
sg5
F241.0
sg6
g7
(S'\x07\xdb\x0b\x12'
p398
tp399
Rp400
sg11
F241.0
sg12
F244.0
sa(dp401
g2
I28531700
sg3
F251.0
sg4
F241.0
sg5
F248.0
sg6
g7
(S'\x07\xdb\x0b\x11'
p402
tp403
Rp404
sg11
F248.0
sg12
F242.0
sa(dp405
g2
I43217400
sg3
F251.0
sg4
F241.0
sg5
F242.0
sg6
g7
(S'\x07\xdb\x0b\x10'
p406
tp407
Rp408
sg11
F242.0
sg12
F250.0
sa(dp409
g2
I30571700
sg3
F259.0
sg4
F252.0
sg5
F253.0
sg6
g7
(S'\x07\xdb\x0b\x0f'
p410
tp411
Rp412
sg11
F253.0
sg12
F254.0
sa(dp413
g2
I66545400
sg3
F260.0
sg4
F251.0
sg5
F257.0
sg6
g7
(S'\x07\xdb\x0b\x0e'
p414
tp415
Rp416
sg11
F257.0
sg12
F251.0
sa(dp417
g2
I31828600
sg3
F246.0
sg4
F239.0
sg5
F243.0
sg6
g7
(S'\x07\xdb\x0b\x0b'
p418
tp419
Rp420
sg11
F243.0
sg12
F244.0
sa(dp421
g2
I71745800
sg3
F249.0
sg4
F237.0
sg5
F247.0
sg6
g7
(S'\x07\xdb\x0b\n'
p422
tp423
Rp424
sg11
F247.0
sg12
F244.0
sa(dp425
g2
I169703600
sg3
F268.0
sg4
F251.0
sg5
F255.0
sg6
g7
(S'\x07\xdb\x0b\t'
p426
tp427
Rp428
sg11
F255.0
sg12
F259.0
sa(dp429
g2
I202472500
sg3
F286.0
sg4
F241.0
sg5
F245.0
sg6
g7
(S'\x07\xdb\x0b\x08'
p430
tp431
Rp432
sg11
F245.0
sg12
F285.0
sa(dp433
g2
I23263700
sg3
F291.0
sg4
F286.0
sg5
F288.0
sg6
g7
(S'\x07\xdb\x0b\x07'
p434
tp435
Rp436
sg11
F288.0
sg12
F290.0
sa(dp437
g2
I27585900
sg3
F292.0
sg4
F286.0
sg5
F290.0
sg6
g7
(S'\x07\xdb\x0b\x04'
p438
tp439
Rp440
sg11
F290.0
sg12
F290.0
sa(dp441
g2
I37453300
sg3
F288.0
sg4
F279.0
sg5
F282.0
sg6
g7
(S'\x07\xdb\x0b\x02'
p442
tp443
Rp444
sg11
F282.0
sg12
F286.0
sa(dp445
g2
I34905900
sg3
F302.0
sg4
F292.0
sg5
F294.0
sg6
g7
(S'\x07\xdb\x0b\x01'
p446
tp447
Rp448
sg11
F294.0
sg12
F301.0
sa(dp449
g2
I41521500
sg3
F316.0
sg4
F304.0
sg5
F304.0
sg6
g7
(S'\x07\xdb\n\x1f'
p450
tp451
Rp452
sg11
F304.0
sg12
F311.0
sa(dp453
g2
I51959700
sg3
F327.0
sg4
F315.0
sg5
F316.0
sg6
g7
(S'\x07\xdb\n\x1c'
p454
tp455
Rp456
sg11
F316.0
sg12
F321.0
sa(dp457
g2
I38861100
sg3
F310.0
sg4
F287.0
sg5
F309.0
sg6
g7
(S'\x07\xdb\n\x1b'
p458
tp459
Rp460
sg11
F309.0
sg12
F288.0
sa(dp461
g2
I15714100
sg3
F291.0
sg4
F281.0
sg5
F287.0
sg6
g7
(S'\x07\xdb\n\x1a'
p462
tp463
Rp464
sg11
F287.0
sg12
F285.0
sa(dp465
g2
I16865800
sg3
F294.0
sg4
F286.0
sg5
F287.0
sg6
g7
(S'\x07\xdb\n\x19'
p466
tp467
Rp468
sg11
F287.0
sg12
F292.0
sa(dp469
g2
I11677300
sg3
F293.0
sg4
F287.0
sg5
F290.0
sg6
g7
(S'\x07\xdb\n\x18'
p470
tp471
Rp472
sg11
F290.0
sg12
F288.0
sa(dp473
g2
I15700400
sg3
F287.0
sg4
F281.0
sg5
F284.0
sg6
g7
(S'\x07\xdb\n\x15'
p474
tp475
Rp476
sg11
F284.0
sg12
F282.0
sa(dp477
g2
I19860800
sg3
F288.0
sg4
F281.0
sg5
F282.0
sg6
g7
(S'\x07\xdb\n\x14'
p478
tp479
Rp480
sg11
F282.0
sg12
F285.0
sa(dp481
g2
I34479800
sg3
F300.0
sg4
F283.0
sg5
F285.0
sg6
g7
(S'\x07\xdb\n\x13'
p482
tp483
Rp484
sg11
F285.0
sg12
F298.0
sa(dp485
g2
I13472000
sg3
F297.0
sg4
F293.0
sg5
F294.0
sg6
g7
(S'\x07\xdb\n\x12'
p486
tp487
Rp488
sg11
F294.0
sg12
F294.0
sa(dp489
g2
I29402300
sg3
F305.0
sg4
F294.0
sg5
F301.0
sg6
g7
(S'\x07\xdb\n\x11'
p490
tp491
Rp492
sg11
F301.0
sg12
F297.0
sa(dp493
g2
I17240700
sg3
F295.0
sg4
F290.0
sg5
F291.0
sg6
g7
(S'\x07\xdb\n\x0e'
p494
tp495
Rp496
sg11
F291.0
sg12
F291.0
sa(dp497
g2
I30356000
sg3
F298.0
sg4
F285.0
sg5
F296.0
sg6
g7
(S'\x07\xdb\n\r'
p498
tp499
Rp500
sg11
F296.0
sg12
F288.0
sa(dp501
g2
I12449000
sg3
F283.0
sg4
F278.0
sg5
F280.0
sg6
g7
(S'\x07\xdb\n\x0c'
p502
tp503
Rp504
sg11
F280.0
sg12
F282.0
sa(dp505
g2
I16497000
sg3
F289.0
sg4
F283.0
sg5
F284.0
sg6
g7
(S'\x07\xdb\n\x0b'
p506
tp507
Rp508
sg11
F284.0
sg12
F287.0
sa(dp509
g2
I23931700
sg3
F287.0
sg4
F276.0
sg5
F277.0
sg6
g7
(S'\x07\xdb\n\x07'
p510
tp511
Rp512
sg11
F277.0
sg12
F283.0
sa(dp513
g2
I18664400
sg3
F275.0
sg4
F268.0
sg5
F274.0
sg6
g7
(S'\x07\xdb\n\x06'
p514
tp515
Rp516
sg11
F274.0
sg12
F269.0
sa(dp517
g2
I29055900
sg3
F272.0
sg4
F262.0
sg5
F264.0
sg6
g7
(S'\x07\xdb\n\x05'
p518
tp519
Rp520
sg11
F264.0
sg12
F270.0
sa(dp521
g2
I29371000
sg3
F268.0
sg4
F261.0
sg5
F267.0
sg6
g7
(S'\x07\xdb\n\x04'
p522
tp523
Rp524
sg11
F267.0
sg12
F267.0
sa(dp525
g2
I32440300
sg3
F279.0
sg4
F270.0
sg5
F274.0
sg6
g7
(S'\x07\xdb\n\x03'
p526
tp527
Rp528
sg11
F274.0
sg12
F277.0
sa(dp529
g2
I24503500
sg3
F295.0
sg4
F285.0
sg5
F286.0
sg6
g7
(S'\x07\xdb\t\x1e'
p530
tp531
Rp532
sg11
F286.0
sg12
F292.0
sa(dp533
g2
I31776200
sg3
F289.0
sg4
F281.0
sg5
F289.0
sg6
g7
(S'\x07\xdb\t\x1d'
p534
tp535
Rp536
sg11
F289.0
sg12
F284.0
sa(dp537
g2
I31690100
sg3
F294.0
sg4
F284.0
sg5
F289.0
sg6
g7
(S'\x07\xdb\t\x1c'
p538
tp539
Rp540
sg11
F289.0
sg12
F286.0
sa(dp541
g2
I17350000
sg3
F284.0
sg4
F280.0
sg5
F283.0
sg6
g7
(S'\x07\xdb\t\x1b'
p542
tp543
Rp544
sg11
F283.0
sg12
F282.0
sa(dp545
g2
I34579400
sg3
F283.0
sg4
F273.0
sg5
F276.0
sg6
g7
(S'\x07\xdb\t\x1a'
p546
tp547
Rp548
sg11
F276.0
sg12
F283.0
sa(dp549
g2
I36081300
sg3
F289.0
sg4
F280.0
sg5
F281.0
sg6
g7
(S'\x07\xdb\t\x16'
p550
tp551
Rp552
sg11
F281.0
sg12
F287.0
sa(dp553
g2
I15223600
sg3
F297.0
sg4
F293.0
sg5
F295.0
sg6
g7
(S'\x07\xdb\t\x15'
p554
tp555
Rp556
sg11
F295.0
sg12
F296.0
sa(dp557
g2
I21907900
sg3
F305.0
sg4
F295.0
sg5
F296.0
sg6
g7
(S'\x07\xdb\t\x14'
p558
tp559
Rp560
sg11
F296.0
sg12
F301.0
sa(dp561
g2
I35445400
sg3
F309.0
sg4
F300.0
sg5
F308.0
sg6
g7
(S'\x07\xdb\t\x10'
p562
tp563
Rp564
sg11
F308.0
sg12
F302.0
sa(dp565
g2
I18428000
sg3
F297.0
sg4
F291.0
sg5
F292.0
sg6
g7
(S'\x07\xdb\t\x0f'
p566
tp567
Rp568
sg11
F292.0
sg12
F293.0
sa(dp569
g2
I20108300
sg3
F300.0
sg4
F289.0
sg5
F290.0
sg6
g7
(S'\x07\xdb\t\x0e'
p570
tp571
Rp572
sg11
F290.0
sg12
F297.0
sa(dp573
g2
I30416000
sg3
F298.0
sg4
F286.0
sg5
F296.0
sg6
g7
(S'\x07\xdb\t\r'
p574
tp575
Rp576
sg11
F296.0
sg12
F290.0
sa(dp577
g2
I20914800
sg3
F294.0
sg4
F285.0
sg5
F286.0
sg6
g7
(S'\x07\xdb\t\x0c'
p578
tp579
Rp580
sg11
F286.0
sg12
F292.0
sa(dp581
g2
I23929300
sg3
F304.0
sg4
F298.0
sg5
F299.0
sg6
g7
(S'\x07\xdb\t\t'
p582
tp583
Rp584
sg11
F299.0
sg12
F299.0
sa(dp585
g2
I27688100
sg3
F308.0
sg4
F297.0
sg5
F298.0
sg6
g7
(S'\x07\xdb\t\x08'
p586
tp587
Rp588
sg11
F298.0
sg12
F306.0
sa(dp589
g2
I41959500
sg3
F305.0
sg4
F295.0
sg5
F303.0
sg6
g7
(S'\x07\xdb\t\x07'
p590
tp591
Rp592
sg11
F303.0
sg12
F299.0
sa(dp593
g2
I42921500
sg3
F305.0
sg4
F290.0
sg5
F291.0
sg6
g7
(S'\x07\xdb\t\x06'
p594
tp595
Rp596
sg11
F291.0
sg12
F305.0
sa(dp597
g2
I28491500
sg3
F314.0
sg4
F307.0
sg5
F308.0
sg6
g7
(S'\x07\xdb\t\x05'
p598
tp599
Rp600
sg11
F308.0
sg12
F312.0
sa(dp601
g2
I25055900
sg3
F327.0
sg4
F320.0
sg5
F323.0
sg6
g7
(S'\x07\xdb\t\x02'
p602
tp603
Rp604
sg11
F323.0
sg12
F323.0
sa(dp605
g2
I30807900
sg3
F329.0
sg4
F320.0
sg5
F327.0
sg6
g7
(S'\x07\xdb\t\x01'
p606
tp607
Rp608
sg11
F327.0
sg12
F322.0
sa(dp609
g2
I25475400
sg3
F324.0
sg4
F318.0
sg5
F321.0
sg6
g7
(S'\x07\xdb\x08\x1f'
p610
tp611
Rp612
sg11
F321.0
sg12
F322.0
sa(dp613
g2
I30562300
sg3
F327.0
sg4
F319.0
sg5
F323.0
sg6
g7
(S'\x07\xdb\x08\x1e'
p614
tp615
Rp616
sg11
F323.0
sg12
F320.0
sa(dp617
g2
I20382400
sg3
F319.0
sg4
F312.0
sg5
F315.0
sg6
g7
(S'\x07\xdb\x08\x1d'
p618
tp619
Rp620
sg11
F315.0
sg12
F315.0
sa(dp621
g2
I21128400
sg3
F318.0
sg4
F313.0
sg5
F316.0
sg6
g7
(S'\x07\xdb\x08\x1a'
p622
tp623
Rp624
sg11
F316.0
sg12
F317.0
sa(dp625
g2
I21922400
sg3
F320.0
sg4
F311.0
sg5
F316.0
sg6
g7
(S'\x07\xdb\x08\x19'
p626
tp627
Rp628
sg11
F316.0
sg12
F312.0
sa(dp629
g2
I24295700
sg3
F317.0
sg4
F308.0
sg5
F308.0
sg6
g7
(S'\x07\xdb\x08\x18'
p630
tp631
Rp632
sg11
F308.0
sg12
F316.0
sa(dp633
g2
I27917000
sg3
F315.0
sg4
F308.0
sg5
F313.0
sg6
g7
(S'\x07\xdb\x08\x17'
p634
tp635
Rp636
sg11
F313.0
sg12
F308.0
sa(dp637
g2
I22156700
sg3
F315.0
sg4
F307.0
sg5
F307.0
sg6
g7
(S'\x07\xdb\x08\x16'
p638
tp639
Rp640
sg11
F307.0
sg12
F312.0
sa(dp641
g2
I32334000
sg3
F319.0
sg4
F311.0
sg5
F312.0
sg6
g7
(S'\x07\xdb\x08\x13'
p642
tp643
Rp644
sg11
F312.0
sg12
F317.0
sa(dp645
g2
I19195000
sg3
F329.0
sg4
F321.0
sg5
F324.0
sg6
g7
(S'\x07\xdb\x08\x12'
p646
tp647
Rp648
sg11
F324.0
sg12
F326.0
sa(dp649
g2
I21404700
sg3
F329.0
sg4
F318.0
sg5
F326.0
sg6
g7
(S'\x07\xdb\x08\x11'
p650
tp651
Rp652
sg11
F326.0
sg12
F320.0
sa(dp653
g2
I16283900
sg3
F327.0
sg4
F320.0
sg5
F321.0
sg6
g7
(S'\x07\xdb\x08\x10'
p654
tp655
Rp656
sg11
F321.0
sg12
F326.0
sa(dp657
g2
I18475000
sg3
F326.0
sg4
F320.0
sg5
F323.0
sg6
g7
(S'\x07\xdb\x08\x0f'
p658
tp659
Rp660
sg11
F323.0
sg12
F325.0
sa(dp661
g2
I32746200
sg3
F329.0
sg4
F316.0
sg5
F319.0
sg6
g7
(S'\x07\xdb\x08\x0c'
p662
tp663
Rp664
sg11
F319.0
sg12
F323.0
sa(dp665
g2
I32904500
sg3
F323.0
sg4
F311.0
sg5
F319.0
sg6
g7
(S'\x07\xdb\x08\x0b'
p666
tp667
Rp668
sg11
F319.0
sg12
F314.0
sa(dp669
g2
I37662200
sg3
F336.0
sg4
F321.0
sg5
F322.0
sg6
g7
(S'\x07\xdb\x08\n'
p670
tp671
Rp672
sg11
F322.0
sg12
F335.0
sa(dp673
g2
I66978400
sg3
F329.0
sg4
F315.0
sg5
F327.0
sg6
g7
(S'\x07\xdb\x08\t'
p674
tp675
Rp676
sg11
F327.0
sg12
F323.0
sa(dp677
g2
I27894800
sg3
F346.0
sg4
F337.0
sg5
F340.0
sg6
g7
(S'\x07\xdb\x08\x08'
p678
tp679
Rp680
sg11
F340.0
sg12
F344.0
sa(dp681
g2
I41637300
sg3
F351.0
sg4
F348.0
sg5
F349.0
sg6
g7
(S'\x07\xdb\x08\x05'
p682
tp683
Rp684
sg11
F349.0
sg12
F350.0
sa(dp685
g2
I24874700
sg3
F376.0
sg4
F369.0
sg5
F369.0
sg6
g7
(S'\x07\xdb\x08\x04'
p686
tp687
Rp688
sg11
F369.0
sg12
F370.0
sa(dp689
g2
I15025400
sg3
F372.0
sg4
F368.0
sg5
F369.0
sg6
g7
(S'\x07\xdb\x08\x03'
p690
tp691
Rp692
sg11
F369.0
sg12
F371.0
sa(dp693
g2
I13599000
sg3
F378.0
sg4
F375.0
sg5
F376.0
sg6
g7
(S'\x07\xdb\x08\x02'
p694
tp695
Rp696
sg11
F376.0
sg12
F375.0
sa(dp697
g2
I31229800
sg3
F386.0
sg4
F379.0
sg5
F380.0
sg6
g7
(S'\x07\xdb\x08\x01'
p698
tp699
Rp700
sg11
F380.0
sg12
F382.0
sa(dp701
g2
I23966800
sg3
F381.0
sg4
F375.0
sg5
F376.0
sg6
g7
(S'\x07\xdb\x07\x1d'
p702
tp703
Rp704
sg11
F376.0
sg12
F379.0
sa(dp705
g2
I12143600
sg3
F381.0
sg4
F378.0
sg5
F378.0
sg6
g7
(S'\x07\xdb\x07\x1c'
p706
tp707
Rp708
sg11
F378.0
sg12
F380.0
sa(dp709
g2
I13098500
sg3
F387.0
sg4
F382.0
sg5
F383.0
sg6
g7
(S'\x07\xdb\x07\x1b'
p710
tp711
Rp712
sg11
F383.0
sg12
F386.0
sa(dp713
g2
I23524400
sg3
F389.0
sg4
F383.0
sg5
F387.0
sg6
g7
(S'\x07\xdb\x07\x1a'
p714
tp715
Rp716
sg11
F387.0
sg12
F387.0
sa(dp717
g2
I17679500
sg3
F392.0
sg4
F386.0
sg5
F387.0
sg6
g7
(S'\x07\xdb\x07\x19'
p718
tp719
Rp720
sg11
F387.0
sg12
F390.0
sa(dp721
g2
I40383100
sg3
F397.0
sg4
F388.0
sg5
F393.0
sg6
g7
(S'\x07\xdb\x07\x16'
p722
tp723
Rp724
sg11
F393.0
sg12
F389.0
sa(dp725
g2
I15545300
sg3
F384.0
sg4
F379.0
sg5
F381.0
sg6
g7
(S'\x07\xdb\x07\x15'
p726
tp727
Rp728
sg11
F381.0
sg12
F383.0
sa(dp729
g2
I20485700
sg3
F380.0
sg4
F376.0
sg5
F380.0
sg6
g7
(S'\x07\xdb\x07\x14'
p730
tp731
Rp732
sg11
F380.0
sg12
F380.0
sa(dp733
g2
I27026100
sg3
F381.0
sg4
F374.0
sg5
F375.0
sg6
g7
(S'\x07\xdb\x07\x13'
p734
tp735
Rp736
sg11
F375.0
sg12
F380.0
sa(dp737
g2
I13082600
sg3
F386.0
sg4
F381.0
sg5
F385.0
sg6
g7
(S'\x07\xdb\x07\x0f'
p738
tp739
Rp740
sg11
F385.0
sg12
F383.0
sa(dp741
g2
I19710200
sg3
F388.0
sg4
F382.0
sg5
F383.0
sg6
g7
(S'\x07\xdb\x07\x0e'
p742
tp743
Rp744
sg11
F383.0
sg12
F386.0
sa(dp745
g2
I19026900
sg3
F391.0
sg4
F384.0
sg5
F388.0
sg6
g7
(S'\x07\xdb\x07\r'
p746
tp747
Rp748
sg11
F388.0
sg12
F385.0
sa(dp749
g2
I24917500
sg3
F391.0
sg4
F384.0
sg5
F385.0
sg6
g7
(S'\x07\xdb\x07\x0c'
p750
tp751
Rp752
sg11
F385.0
sg12
F390.0
sa(dp753
g2
I14693400
sg3
F402.0
sg4
F396.0
sg5
F398.0
sg6
g7
(S'\x07\xdb\x07\x0b'
p754
tp755
Rp756
sg11
F398.0
sg12
F401.0
sa(dp757
g2
I13873200
sg3
F410.0
sg4
F404.0
sg5
F404.0
sg6
g7
(S'\x07\xdb\x07\x08'
p758
tp759
Rp760
sg11
F404.0
sg12
F409.0
sa(dp761
g2
I17349100
sg3
F407.0
sg4
F400.0
sg5
F404.0
sg6
g7
(S'\x07\xdb\x07\x07'
p762
tp763
Rp764
sg11
F404.0
sg12
F400.0
sa(dp765
g2
I18177500
sg3
F405.0
sg4
F397.0
sg5
F405.0
sg6
g7
(S'\x07\xdb\x07\x06'
p766
tp767
Rp768
sg11
F405.0
sg12
F402.0
sa(dp769
g2
I20678000
sg3
F408.0
sg4
F399.0
sg5
F401.0
sg6
g7
(S'\x07\xdb\x07\x05'
p770
tp771
Rp772
sg11
F401.0
sg12
F402.0
sa(dp773
g2
I18819300
sg3
F404.0
sg4
F400.0
sg5
F403.0
sg6
g7
(S'\x07\xdb\x07\x04'
p774
tp775
Rp776
sg11
F403.0
sg12
F402.0
sa(dp777
g2
I17495700
sg3
F402.0
sg4
F395.0
sg5
F397.0
sg6
g7
(S'\x07\xdb\x07\x01'
p778
tp779
Rp780
sg11
F397.0
sg12
F402.0
sa(dp781
g2
I15970800
sg3
F400.0
sg4
F395.0
sg5
F396.0
sg6
g7
(S'\x07\xdb\x06\x1e'
p782
tp783
Rp784
sg11
F396.0
sg12
F399.0
sa(dp785
g2
I25214500
sg3
F398.0
sg4
F390.0
sg5
F397.0
sg6
g7
(S'\x07\xdb\x06\x1d'
p786
tp787
Rp788
sg11
F397.0
sg12
F392.0
sa(dp789
g2
I13432600
sg3
F391.0
sg4
F385.0
sg5
F387.0
sg6
g7
(S'\x07\xdb\x06\x1c'
p790
tp791
Rp792
sg11
F387.0
sg12
F390.0
sa(dp793
g2
I17970500
sg3
F388.0
sg4
F379.0
sg5
F384.0
sg6
g7
(S'\x07\xdb\x06\x1b'
p794
tp795
Rp796
sg11
F384.0
sg12
F386.0
sa(dp797
g2
I25055500
sg3
F388.0
sg4
F377.0
sg5
F386.0
sg6
g7
(S'\x07\xdb\x06\x18'
p798
tp799
Rp800
sg11
F386.0
sg12
F378.0
sa(dp801
g2
I20760400
sg3
F385.0
sg4
F376.0
sg5
F378.0
sg6
g7
(S'\x07\xdb\x06\x17'
p802
tp803
Rp804
sg11
F378.0
sg12
F377.0
sa(dp805
g2
I26349200
sg3
F384.0
sg4
F374.0
sg5
F381.0
sg6
g7
(S'\x07\xdb\x06\x16'
p806
tp807
Rp808
sg11
F381.0
sg12
F374.0
sa(dp809
g2
I17502500
sg3
F376.0
sg4
F368.0
sg5
F372.0
sg6
g7
(S'\x07\xdb\x06\x15'
p810
tp811
Rp812
sg11
F372.0
sg12
F374.0
sa(dp813
g2
I24166900
sg3
F377.0
sg4
F370.0
sg5
F372.0
sg6
g7
(S'\x07\xdb\x06\x14'
p814
tp815
Rp816
sg11
F372.0
sg12
F375.0
sa(dp817
g2
I25510100
sg3
F380.0
sg4
F370.0
sg5
F371.0
sg6
g7
(S'\x07\xdb\x06\x11'
p818
tp819
Rp820
sg11
F371.0
sg12
F379.0
sa(dp821
g2
I27539800
sg3
F382.0
sg4
F376.0
sg5
F377.0
sg6
g7
(S'\x07\xdb\x06\x10'
p822
tp823
Rp824
sg11
F377.0
sg12
F381.0
sa(dp825
g2
I40915200
sg3
F395.0
sg4
F382.0
sg5
F386.0
sg6
g7
(S'\x07\xdb\x06\x0f'
p826
tp827
Rp828
sg11
F386.0
sg12
F394.0
sa(dp829
g2
I16508900
sg3
F396.0
sg4
F389.0
sg5
F395.0
sg6
g7
(S'\x07\xdb\x06\x0e'
p830
tp831
Rp832
sg11
F395.0
sg12
F389.0
sa(dp833
g2
I9904200
sg3
F394.0
sg4
F389.0
sg5
F391.0
sg6
g7
(S'\x07\xdb\x06\r'
p834
tp835
Rp836
sg11
F391.0
sg12
F390.0
sa(dp837
g2
I19724400
sg3
F401.0
sg4
F391.0
sg5
F393.0
sg6
g7
(S'\x07\xdb\x06\n'
p838
tp839
Rp840
sg11
F393.0
sg12
F395.0
sa(dp841
g2
I12172500
sg3
F396.0
sg4
F390.0
sg5
F393.0
sg6
g7
(S'\x07\xdb\x06\t'
p842
tp843
Rp844
sg11
F393.0
sg12
F393.0
sa(dp845
g2
I10707900
sg3
F404.0
sg4
F396.0
sg5
F397.0
sg6
g7
(S'\x07\xdb\x06\x08'
p846
tp847
Rp848
sg11
F397.0
sg12
F397.0
sa(dp849
g2
I16959000
sg3
F398.0
sg4
F386.0
sg5
F398.0
sg6
g7
(S'\x07\xdb\x06\x07'
p850
tp851
Rp852
sg11
F398.0
sg12
F390.0
sa(dp853
g2
I14013300
sg3
F398.0
sg4
F390.0
sg5
F391.0
sg6
g7
(S'\x07\xdb\x06\x06'
p854
tp855
Rp856
sg11
F391.0
sg12
F395.0
sa(dp857
g2
I23009900
sg3
F409.0
sg4
F397.0
sg5
F399.0
sg6
g7
(S'\x07\xdb\x06\x03'
p858
tp859
Rp860
sg11
F399.0
sg12
F405.0
sa(dp861
g2
I25234600
sg3
F409.0
sg4
F400.0
sg5
F406.0
sg6
g7
(S'\x07\xdb\x06\x02'
p862
tp863
Rp864
sg11
F406.0
sg12
F403.0
sa(dp865
g2
I20069900
sg3
F410.0
sg4
F405.0
sg5
F408.0
sg6
g7
(S'\x07\xdb\x06\x01'
p866
tp867
Rp868
sg11
F408.0
sg12
F410.0
sa(dp869
g2
I18129600
sg3
F408.0
sg4
F400.0
sg5
F408.0
sg6
g7
(S'\x07\xdb\x05\x1f'
p870
tp871
Rp872
sg11
F408.0
sg12
F400.0
sa(dp873
g2
I14273400
sg3
F402.0
sg4
F395.0
sg5
F400.0
sg6
g7
(S'\x07\xdb\x05\x1e'
p874
tp875
Rp876
sg11
F400.0
sg12
F396.0
sa(dp877
g2
I20833500
sg3
F401.0
sg4
F393.0
sg5
F398.0
sg6
g7
(S'\x07\xdb\x05\x1b'
p878
tp879
Rp880
sg11
F398.0
sg12
F394.0
sa(dp881
g2
I19961600
sg3
F396.0
sg4
F391.0
sg5
F395.0
sg6
g7
(S'\x07\xdb\x05\x1a'
p882
tp883
Rp884
sg11
F395.0
sg12
F391.0
sa(dp885
g2
I34049700
sg3
F394.0
sg4
F387.0
sg5
F390.0
sg6
g7
(S'\x07\xdb\x05\x19'
p886
tp887
Rp888
sg11
F390.0
sg12
F390.0
sa(dp889
g2
I17478400
sg3
F383.0
sg4
F376.0
sg5
F382.0
sg6
g7
(S'\x07\xdb\x05\x18'
p890
tp891
Rp892
sg11
F382.0
sg12
F379.0
sa(dp893
g2
I26679500
sg3
F388.0
sg4
F380.0
sg5
F381.0
sg6
g7
(S'\x07\xdb\x05\x17'
p894
tp895
Rp896
sg11
F381.0
sg12
F388.0
sa(dp897
g2
I12544000
sg3
F398.0
sg4
F391.0
sg5
F391.0
sg6
g7
(S'\x07\xdb\x05\x14'
p898
tp899
Rp900
sg11
F391.0
sg12
F394.0
sa(dp901
g2
I10954700
sg3
F406.0
sg4
F396.0
sg5
F397.0
sg6
g7
(S'\x07\xdb\x05\x13'
p902
tp903
Rp904
sg11
F397.0
sg12
F402.0
sa(dp905
g2
I17341900
sg3
F404.0
sg4
F396.0
sg5
F401.0
sg6
g7
(S'\x07\xdb\x05\x12'
p906
tp907
Rp908
sg11
F401.0
sg12
F399.0
sa(dp909
g2
I34057100
sg3
F402.0
sg4
F390.0
sg5
F399.0
sg6
g7
(S'\x07\xdb\x05\x11'
p910
tp911
Rp912
sg11
F399.0
sg12
F391.0
sa(dp913
g2
I19359400
sg3
F398.0
sg4
F387.0
sg5
F388.0
sg6
g7
(S'\x07\xdb\x05\x10'
p914
tp915
Rp916
sg11
F388.0
sg12
F398.0
sa(dp917
g2
I24831100
sg3
F405.0
sg4
F395.0
sg5
F399.0
sg6
g7
(S'\x07\xdb\x05\r'
p918
tp919
Rp920
sg11
F399.0
sg12
F403.0
sa(dp921
g2
I13763300
sg3
F411.0
sg4
F405.0
sg5
F406.0
sg6
g7
(S'\x07\xdb\x05\x0c'
p922
tp923
Rp924
sg11
F406.0
sg12
F410.0
sa(dp925
g2
I15250900
sg3
F417.0
sg4
F411.0
sg5
F412.0
sg6
g7
(S'\x07\xdb\x05\x0b'
p926
tp927
Rp928
sg11
F412.0
sg12
F414.0
sa(dp929
g2
I14203400
sg3
F414.0
sg4
F408.0
sg5
F410.0
sg6
g7
(S'\x07\xdb\x05\n'
p930
tp931
Rp932
sg11
F410.0
sg12
F413.0
sa(dp933
g2
I16126900
sg3
F420.0
sg4
F410.0
sg5
F413.0
sg6
g7
(S'\x07\xdb\x05\t'
p934
tp935
Rp936
sg11
F413.0
sg12
F419.0
sa(dp937
g2
I22570100
sg3
F422.0
sg4
F410.0
sg5
F418.0
sg6
g7
(S'\x07\xdb\x05\x06'
p938
tp939
Rp940
sg11
F418.0
sg12
F411.0
sa(dp941
g2
I19330500
sg3
F419.0
sg4
F411.0
sg5
F416.0
sg6
g7
(S'\x07\xdb\x05\x02'
p942
tp943
Rp944
sg11
F416.0
sg12
F418.0
sa(dp945
g2
I25651800
sg3
F416.0
sg4
F407.0
sg5
F412.0
sg6
g7
(S'\x07\xdb\x04\x1c'
p946
tp947
Rp948
sg11
F412.0
sg12
F411.0
sa(dp949
g2
I18269900
sg3
F415.0
sg4
F407.0
sg5
F410.0
sg6
g7
(S'\x07\xdb\x04\x1b'
p950
tp951
Rp952
sg11
F410.0
sg12
F414.0
sa(dp953
g2
I11169000
sg3
F423.0
sg4
F413.0
sg5
F415.0
sg6
g7
(S'\x07\xdb\x04\x1a'
p954
tp955
Rp956
sg11
F415.0
sg12
F422.0
sa(dp957
g2
I15397800
sg3
F429.0
sg4
F421.0
sg5
F422.0
sg6
g7
(S'\x07\xdb\x04\x19'
p958
tp959
Rp960
sg11
F422.0
sg12
F422.0
sa(dp961
g2
I23470400
sg3
F425.0
sg4
F409.0
sg5
F422.0
sg6
g7
(S'\x07\xdb\x04\x16'
p962
tp963
Rp964
sg11
F422.0
sg12
F412.0
sa(dp965
g2
I12696200
sg3
F414.0
sg4
F409.0
sg5
F413.0
sg6
g7
(S'\x07\xdb\x04\x15'
p966
tp967
Rp968
sg11
F413.0
sg12
F411.0
sa(dp969
g2
I13446300
sg3
F412.0
sg4
F405.0
sg5
F409.0
sg6
g7
(S'\x07\xdb\x04\x14'
p970
tp971
Rp972
sg11
F409.0
sg12
F409.0
sa(dp973
g2
I19811400
sg3
F409.0
sg4
F401.0
sg5
F407.0
sg6
g7
(S'\x07\xdb\x04\x13'
p974
tp975
Rp976
sg11
F407.0
sg12
F405.0
sa(dp977
g2
I14450100
sg3
F412.0
sg4
F406.0
sg5
F406.0
sg6
g7
(S'\x07\xdb\x04\x12'
p978
tp979
Rp980
sg11
F406.0
sg12
F410.0
sa(dp981
g2
I16965700
sg3
F419.0
sg4
F411.0
sg5
F411.0
sg6
g7
(S'\x07\xdb\x04\x0f'
p982
tp983
Rp984
sg11
F411.0
sg12
F415.0
sa(dp985
g2
I18438400
sg3
F421.0
sg4
F415.0
sg5
F419.0
sg6
g7
(S'\x07\xdb\x04\x0e'
p986
tp987
Rp988
sg11
F419.0
sg12
F417.0
sa(dp989
g2
I20722300
sg3
F425.0
sg4
F416.0
sg5
F424.0
sg6
g7
(S'\x07\xdb\x04\r'
p990
tp991
Rp992
sg11
F424.0
sg12
F418.0
sa(dp993
g2
I17123200
sg3
F421.0
sg4
F413.0
sg5
F418.0
sg6
g7
(S'\x07\xdb\x04\x0c'
p994
tp995
Rp996
sg11
F418.0
sg12
F416.0
sa(dp997
g2
I16472700
sg3
F428.0
sg4
F419.0
sg5
F421.0
sg6
g7
(S'\x07\xdb\x04\x0b'
p998
tp999
Rp1000
sg11
F421.0
sg12
F420.0
sa(dp1001
g2
I31474300
sg3
F424.0
sg4
F406.0
sg5
F421.0
sg6
g7
(S'\x07\xdb\x04\x08'
p1002
tp1003
Rp1004
sg11
F421.0
sg12
F409.0
sa(dp1005
g2
I27724100
sg3
F417.0
sg4
F410.0
sg5
F411.0
sg6
g7
(S'\x07\xdb\x04\x07'
p1006
tp1007
Rp1008
sg11
F411.0
sg12
F412.0
sa(dp1009
g2
I33645200
sg3
F418.0
sg4
F405.0
sg5
F408.0
sg6
g7
(S'\x07\xdb\x04\x06'
p1010
tp1011
Rp1012
sg11
F408.0
sg12
F417.0
sa(dp1013
g2
I30714100
sg3
F427.0
sg4
F417.0
sg5
F421.0
sg6
g7
(S'\x07\xdb\x04\x05'
p1014
tp1015
Rp1016
sg11
F421.0
sg12
F422.0
sa(dp1017
g2
I24288600
sg3
F432.0
sg4
F422.0
sg5
F425.0
sg6
g7
(S'\x07\xdb\x04\x04'
p1018
tp1019
Rp1020
sg11
F425.0
sg12
F431.0
sa(dp1021
g2
I26491700
sg3
F436.0
sg4
F426.0
sg5
F426.0
sg6
g7
(S'\x07\xdb\x04\x01'
p1022
tp1023
Rp1024
sg11
F426.0
sg12
F432.0
sa(dp1025
g2
I30374900
sg3
F438.0
sg4
F428.0
sg5
F435.0
sg6
g7
(S'\x07\xdb\x03\x1f'
p1026
tp1027
Rp1028
sg11
F435.0
sg12
F435.0
sa(dp1029
g2
I24180800
sg3
F435.0
sg4
F424.0
sg5
F434.0
sg6
g7
(S'\x07\xdb\x03\x1e'
p1030
tp1031
Rp1032
sg11
F434.0
sg12
F425.0
sa(dp1033
g2
I32494900
sg3
F429.0
sg4
F415.0
sg5
F424.0
sg6
g7
(S'\x07\xdb\x03\x1d'
p1034
tp1035
Rp1036
sg11
F424.0
sg12
F420.0
sa(dp1037
g2
I27638300
sg3
F440.0
sg4
F427.0
sg5
F431.0
sg6
g7
(S'\x07\xdb\x03\x1c'
p1038
tp1039
Rp1040
sg11
F431.0
sg12
F439.0
sa(dp1041
g2
I34581000
sg3
F449.0
sg4
F430.0
sg5
F435.0
sg6
g7
(S'\x07\xdb\x03\x19'
p1042
tp1043
Rp1044
sg11
F435.0
sg12
F448.0
sa(dp1045
g2
I51144800
sg3
F448.0
sg4
F438.0
sg5
F440.0
sg6
g7
(S'\x07\xdb\x03\x18'
p1046
tp1047
Rp1048
sg11
F440.0
sg12
F447.0
sa(dp1049
g2
I31261400
sg3
F457.0
sg4
F449.0
sg5
F455.0
sg6
g7
(S'\x07\xdb\x03\x17'
p1050
tp1051
Rp1052
sg11
F455.0
sg12
F455.0
sa(dp1053
g2
I47107500
sg3
F467.0
sg4
F452.0
sg5
F463.0
sg6
g7
(S'\x07\xdb\x03\x16'
p1054
tp1055
Rp1056
sg11
F463.0
sg12
F455.0
sa(dp1057
g2
I59521700
sg3
F444.0
sg4
F428.0
sg5
F439.0
sg6
g7
(S'\x07\xdb\x03\x12'
p1058
tp1059
Rp1060
sg11
F439.0
sg12
F428.0
sa(dp1061
g2
I59087100
sg3
F422.0
sg4
F404.0
sg5
F421.0
sg6
g7
(S'\x07\xdb\x03\x11'
p1062
tp1063
Rp1064
sg11
F421.0
sg12
F404.0
sa(dp1065
g2
I79364900
sg3
F427.0
sg4
F412.0
sg5
F425.0
sg6
g7
(S'\x07\xdb\x03\x10'
p1066
tp1067
Rp1068
sg11
F425.0
sg12
F419.0
sa(dp1069
g2
I79138900
sg3
F427.0
sg4
F361.0
sg5
F387.0
sg6
g7
(S'\x07\xdb\x03\x0f'
p1070
tp1071
Rp1072
sg11
F387.0
sg12
F425.0
sa(dp1073
g2
I71197900
sg3
F450.0
sg4
F425.0
sg5
F440.0
sg6
g7
(S'\x07\xdb\x03\x0e'
p1074
tp1075
Rp1076
sg11
F440.0
sg12
F427.0
sa(dp1077
g2
I34281000
sg3
F491.0
sg4
F483.0
sg5
F483.0
sg6
g7
(S'\x07\xdb\x03\x0b'
p1078
tp1079
Rp1080
sg11
F483.0
sg12
F484.0
sa(dp1081
g2
I25014500
sg3
F505.0
sg4
F490.0
sg5
F492.0
sg6
g7
(S'\x07\xdb\x03\n'
p1082
tp1083
Rp1084
sg11
F492.0
sg12
F504.0
sa(dp1085
g2
I34336300
sg3
F508.0
sg4
F499.0
sg5
F501.0
sg6
g7
(S'\x07\xdb\x03\t'
p1086
tp1087
Rp1088
sg11
F501.0
sg12
F502.0
sa(dp1089
g2
I35433900
sg3
F501.0
sg4
F492.0
sg5
F494.0
sg6
g7
(S'\x07\xdb\x03\x08'
p1090
tp1091
Rp1092
sg11
F494.0
sg12
F496.0
sa(dp1093
g2
I33538500
sg3
F507.0
sg4
F495.0
sg5
F496.0
sg6
g7
(S'\x07\xdb\x03\x07'
p1094
tp1095
Rp1096
sg11
F496.0
sg12
F505.0
sa(dp1097
g2
I21527200
sg3
F519.0
sg4
F507.0
sg5
F511.0
sg6
g7
(S'\x07\xdb\x03\x04'
p1098
tp1099
Rp1100
sg11
F511.0
sg12
F518.0
sa(dp1101
g2
I19025200
sg3
F512.0
sg4
F506.0
sg5
F508.0
sg6
g7
(S'\x07\xdb\x03\x03'
p1102
tp1103
Rp1104
sg11
F508.0
sg12
F509.0
sa(dp1105
g2
I25590500
sg3
F516.0
sg4
F507.0
sg5
F508.0
sg6
g7
(S'\x07\xdb\x03\x02'
p1106
tp1107
Rp1108
sg11
F508.0
sg12
F514.0
sa(dp1109
g2
I23556500
sg3
F526.0
sg4
F519.0
sg5
F523.0
sg6
g7
(S'\x07\xdb\x03\x01'
p1110
tp1111
Rp1112
sg11
F523.0
sg12
F519.0
sa(dp1113
g2
I29125600
sg3
F520.0
sg4
F506.0
sg5
F518.0
sg6
g7
(S'\x07\xdb\x02\x1c'
p1114
tp1115
Rp1116
sg11
F518.0
sg12
F511.0
sa(dp1117
g2
I31760500
sg3
F511.0
sg4
F502.0
sg5
F508.0
sg6
g7
(S'\x07\xdb\x02\x19'
p1118
tp1119
Rp1120
sg11
F508.0
sg12
F507.0
sa(dp1121
g2
I40919700
sg3
F517.0
sg4
F504.0
sg5
F505.0
sg6
g7
(S'\x07\xdb\x02\x18'
p1122
tp1123
Rp1124
sg11
F505.0
sg12
F512.0
sa(dp1125
g2
I50805100
sg3
F521.0
sg4
F509.0
sg5
F510.0
sg6
g7
(S'\x07\xdb\x02\x17'
p1126
tp1127
Rp1128
sg11
F510.0
sg12
F514.0
sa(dp1129
g2
I47783400
sg3
F540.0
sg4
F522.0
sg5
F522.0
sg6
g7
(S'\x07\xdb\x02\x16'
p1130
tp1131
Rp1132
sg11
F522.0
sg12
F539.0
sa(dp1133
g2
I27643700
sg3
F549.0
sg4
F540.0
sg5
F549.0
sg6
g7
(S'\x07\xdb\x02\x15'
p1134
tp1135
Rp1136
sg11
F549.0
sg12
F543.0
sa(dp1137
g2
I28795400
sg3
F552.0
sg4
F546.0
sg5
F550.0
sg6
g7
(S'\x07\xdb\x02\x12'
p1138
tp1139
Rp1140
sg11
F550.0
sg12
F550.0
sa(dp1141
g2
I35577000
sg3
F557.0
sg4
F551.0
sg5
F552.0
sg6
g7
(S'\x07\xdb\x02\x11'
p1142
tp1143
Rp1144
sg11
F552.0
sg12
F556.0
sa(dp1145
g2
I50564500
sg3
F550.0
sg4
F533.0
sg5
F546.0
sg6
g7
(S'\x07\xdb\x02\x10'
p1146
tp1147
Rp1148
sg11
F546.0
sg12
F535.0
sa(dp1149
g2
I18431300
sg3
F535.0
sg4
F528.0
sg5
F532.0
sg6
g7
(S'\x07\xdb\x02\x0f'
p1150
tp1151
Rp1152
sg11
F532.0
sg12
F535.0
sa(dp1153
g2
I27103600
sg3
F536.0
sg4
F525.0
sg5
F534.0
sg6
g7
(S'\x07\xdb\x02\x0e'
p1154
tp1155
Rp1156
sg11
F534.0
sg12
F525.0
sa(dp1157
g2
I15036700
sg3
F524.0
sg4
F517.0
sg5
F522.0
sg6
g7
(S'\x07\xdb\x02\n'
p1158
tp1159
Rp1160
sg11
F522.0
sg12
F519.0
sa(dp1161
g2
I23649400
sg3
F530.0
sg4
F516.0
sg5
F519.0
sg6
g7
(S'\x07\xdb\x02\t'
p1162
tp1163
Rp1164
sg11
F519.0
sg12
F530.0
sa(dp1165
g2
I20330400
sg3
F530.0
sg4
F525.0
sg5
F527.0
sg6
g7
(S'\x07\xdb\x02\x08'
p1166
tp1167
Rp1168
sg11
F527.0
sg12
F529.0
sa(dp1169
g2
I22458500
sg3
F529.0
sg4
F521.0
sg5
F522.0
sg6
g7
(S'\x07\xdb\x02\x07'
p1170
tp1171
Rp1172
sg11
F522.0
sg12
F527.0
sa(dp1173
g2
I17838000
sg3
F528.0
sg4
F521.0
sg5
F521.0
sg6
g7
(S'\x07\xdb\x02\x04'
p1174
tp1175
Rp1176
sg11
F521.0
sg12
F526.0
sa(dp1177
g2
I30968300
sg3
F526.0
sg4
F513.0
sg5
F519.0
sg6
g7
(S'\x07\xdb\x02\x03'
p1178
tp1179
Rp1180
sg11
F519.0
sg12
F516.0
sa(dp1181
g2
I42402500
sg3
F523.0
sg4
F505.0
sg5
F516.0
sg6
g7
(S'\x07\xdb\x02\x02'
p1182
tp1183
Rp1184
sg11
F516.0
sg12
F505.0
sa(dp1185
g2
I17984600
sg3
F506.0
sg4
F495.0
sg5
F496.0
sg6
g7
(S'\x07\xdb\x02\x01'
p1186
tp1187
Rp1188
sg11
F496.0
sg12
F506.0
sa(dp1189
g2
I28803300
sg3
F500.0
sg4
F493.0
sg5
F499.0
sg6
g7
(S'\x07\xdb\x01\x1f'
p1190
tp1191
Rp1192
sg11
F499.0
sg12
F495.0
sa(dp1193
g2
I42536700
sg3
F512.0
sg4
F500.0
sg5
F505.0
sg6
g7
(S'\x07\xdb\x01\x1c'
p1194
tp1195
Rp1196
sg11
F505.0
sg12
F511.0
sa(dp1197
g2
I22807900
sg3
F517.0
sg4
F509.0
sg5
F515.0
sg6
g7
(S'\x07\xdb\x01\x1b'
p1198
tp1199
Rp1200
sg11
F515.0
sg12
F514.0
sa(dp1201
g2
I16085000
sg3
F520.0
sg4
F514.0
sg5
F515.0
sg6
g7
(S'\x07\xdb\x01\x1a'
p1202
tp1203
Rp1204
sg11
F515.0
sg12
F517.0
sa(dp1205
g2
I34270300
sg3
F526.0
sg4
F516.0
sg5
F521.0
sg6
g7
(S'\x07\xdb\x01\x19'
p1206
tp1207
Rp1208
sg11
F521.0
sg12
F516.0
sa(dp1209
g2
I25685500
sg3
F520.0
sg4
F511.0
sg5
F514.0
sg6
g7
(S'\x07\xdb\x01\x18'
p1210
tp1211
Rp1212
sg11
F514.0
sg12
F516.0
sa(dp1213
g2
I49267800
sg3
F533.0
sg4
F507.0
sg5
F514.0
sg6
g7
(S'\x07\xdb\x01\x15'
p1214
tp1215
Rp1216
sg11
F514.0
sg12
F533.0
sa(dp1217
g2
I34832900
sg3
F542.0
sg4
F531.0
sg5
F531.0
sg6
g7
(S'\x07\xdb\x01\x14'
p1218
tp1219
Rp1220
sg11
F531.0
sg12
F533.0
sa(dp1221
g2
I21959700
sg3
F542.0
sg4
F532.0
sg5
F537.0
sg6
g7
(S'\x07\xdb\x01\x13'
p1222
tp1223
Rp1224
sg11
F537.0
sg12
F538.0
sa(dp1225
g2
I21335700
sg3
F541.0
sg4
F529.0
sg5
F535.0
sg6
g7
(S'\x07\xdb\x01\x12'
p1226
tp1227
Rp1228
sg11
F535.0
sg12
F532.0
sa(dp1229
g2
I25249000
sg3
F543.0
sg4
F531.0
sg5
F535.0
sg6
g7
(S'\x07\xdb\x01\x11'
p1230
tp1231
Rp1232
sg11
F535.0
sg12
F542.0
sa(dp1233
g2
I38377300
sg3
F554.0
sg4
F541.0
sg5
F541.0
sg6
g7
(S'\x07\xdb\x01\x0e'
p1234
tp1235
Rp1236
sg11
F541.0
sg12
F549.0
sa(dp1237
g2
I59321800
sg3
F556.0
sg4
F545.0
sg5
F551.0
sg6
g7
(S'\x07\xdb\x01\r'
p1238
tp1239
Rp1240
sg11
F551.0
sg12
F550.0
sa(dp1241
g2
I51576200
sg3
F552.0
sg4
F534.0
sg5
F535.0
sg6
g7
(S'\x07\xdb\x01\x0c'
p1242
tp1243
Rp1244
sg11
F535.0
sg12
F539.0
sa(dp1245
g2
I23215100
sg3
F541.0
sg4
F532.0
sg5
F536.0
sg6
g7
(S'\x07\xdb\x01\x0b'
p1246
tp1247
Rp1248
sg11
F536.0
sg12
F535.0
sa(dp1249
g2
I30168600
sg3
F548.0
sg4
F537.0
sg5
F542.0
sg6
g7
(S'\x07\xdb\x01\x07'
p1250
tp1251
Rp1252
sg11
F542.0
sg12
F544.0
sa(dp1253
g2
I43908800
sg3
F543.0
sg4
F525.0
sg5
F541.0
sg6
g7
(S'\x07\xdb\x01\x06'
p1254
tp1255
Rp1256
sg11
F541.0
sg12
F529.0
sa(dp1257
g2
I19451900
sg3
F527.0
sg4
F518.0
sg5
F520.0
sg6
g7
(S'\x07\xdb\x01\x05'
p1258
tp1259
Rp1260
sg11
F520.0
sg12
F525.0
sa(dp1261
g2
I18647300
sg3
F526.0
sg4
F521.0
sg5
F524.0
sg6
g7
(S'\x07\xdb\x01\x04'
p1262
tp1263
Rp1264
sg11
F524.0
sg12
F525.0
sa(dp1265
g2
I21573600
sg3
F525.0
sg4
F515.0
sg5
F515.0
sg6
g7
(S'\x07\xda\x0c\x1e'
p1266
tp1267
Rp1268
sg11
F515.0
sg12
F525.0
sa(dp1269
g2
I16496700
sg3
F526.0
sg4
F520.0
sg5
F524.0
sg6
g7
(S'\x07\xda\x0c\x1d'
p1270
tp1271
Rp1272
sg11
F524.0
sg12
F525.0
sa(dp1273
g2
I19181500
sg3
F529.0
sg4
F524.0
sg5
F526.0
sg6
g7
(S'\x07\xda\x0c\x1c'
p1274
tp1275
Rp1276
sg11
F526.0
sg12
F525.0
sa(dp1277
g2
I15149500
sg3
F523.0
sg4
F520.0
sg5
F520.0
sg6
g7
(S'\x07\xda\x0c\x1b'
p1278
tp1279
Rp1280
sg11
F520.0
sg12
F520.0
sa(dp1281
g2
I14787500
sg3
F527.0
sg4
F519.0
sg5
F522.0
sg6
g7
(S'\x07\xda\x0c\x18'
p1282
tp1283
Rp1284
sg11
F522.0
sg12
F524.0
sa(dp1285
g2
I32468100
sg3
F530.0
sg4
F518.0
sg5
F524.0
sg6
g7
(S'\x07\xda\x0c\x16'
p1286
tp1287
Rp1288
sg11
F524.0
sg12
F518.0
sa(dp1289
g2
I20424500
sg3
F522.0
sg4
F514.0
sg5
F518.0
sg6
g7
(S'\x07\xda\x0c\x15'
p1290
tp1291
Rp1292
sg11
F518.0
sg12
F516.0
sa(dp1293
g2
I22490200
sg3
F528.0
sg4
F514.0
sg5
F516.0
sg6
g7
(S'\x07\xda\x0c\x14'
p1294
tp1295
Rp1296
sg11
F516.0
sg12
F526.0
sa(dp1297
g2
I23923100
sg3
F530.0
sg4
F522.0
sg5
F523.0
sg6
g7
(S'\x07\xda\x0c\x11'
p1298
tp1299
Rp1300
sg11
F523.0
sg12
F525.0
sa(dp1301
g2
I45761000
sg3
F530.0
sg4
F519.0
sg5
F523.0
sg6
g7
(S'\x07\xda\x0c\x10'
p1302
tp1303
Rp1304
sg11
F523.0
sg12
F523.0
sa(dp1305
g2
I31870600
sg3
F534.0
sg4
F524.0
sg5
F526.0
sg6
g7
(S'\x07\xda\x0c\x0f'
p1306
tp1307
Rp1308
sg11
F526.0
sg12
F533.0
sa(dp1309
g2
I99679700
sg3
F536.0
sg4
F516.0
sg5
F527.0
sg6
g7
(S'\x07\xda\x0c\x0e'
p1310
tp1311
Rp1312
sg11
F527.0
sg12
F518.0
sa(dp1313
g2
I47817100
sg3
F519.0
sg4
F501.0
sg5
F519.0
sg6
g7
(S'\x07\xda\x0c\r'
p1314
tp1315
Rp1316
sg11
F519.0
sg12
F503.0
sa(dp1317
g2
I70004900
sg3
F512.0
sg4
F500.0
sg5
F505.0
sg6
g7
(S'\x07\xda\x0c\n'
p1318
tp1319
Rp1320
sg11
F505.0
sg12
F509.0
sa(dp1321
g2
I75202600
sg3
F510.0
sg4
F491.0
sg5
F509.0
sg6
g7
(S'\x07\xda\x0c\t'
p1322
tp1323
Rp1324
sg11
F509.0
sg12
F498.0
sa(dp1325
g2
I26276900
sg3
F494.0
sg4
F486.0
sg5
F490.0
sg6
g7
(S'\x07\xda\x0c\x08'
p1326
tp1327
Rp1328
sg11
F490.0
sg12
F491.0
sa(dp1329
g2
I18562800
sg3
F495.0
sg4
F488.0
sg5
F491.0
sg6
g7
(S'\x07\xda\x0c\x07'
p1330
tp1331
Rp1332
sg11
F491.0
sg12
F490.0
sa(dp1333
g2
I10685500
sg3
F494.0
sg4
F487.0
sg5
F492.0
sg6
g7
(S'\x07\xda\x0c\x06'
p1334
tp1335
Rp1336
sg11
F492.0
sg12
F492.0
sa(dp1337
g2
I20480800
sg3
F499.0
sg4
F486.0
sg5
F490.0
sg6
g7
(S'\x07\xda\x0c\x03'
p1338
tp1339
Rp1340
sg11
F490.0
sg12
F498.0
sa(dp1341
g2
I28372200
sg3
F497.0
sg4
F489.0
sg5
F491.0
sg6
g7
(S'\x07\xda\x0c\x02'
p1342
tp1343
Rp1344
sg11
F491.0
sg12
F492.0
sa(dp1345
g2
I29186700
sg3
F481.0
sg4
F471.0
sg5
F478.0
sg6
g7
(S'\x07\xda\x0c\x01'
p1346
tp1347
Rp1348
sg11
F478.0
sg12
F480.0
sa(dp1349
g2
I27678500
sg3
F491.0
sg4
F482.0
sg5
F482.0
sg6
g7
(S'\x07\xda\x0b\x1e'
p1350
tp1351
Rp1352
sg11
F482.0
sg12
F486.0
sa(dp1353
g2
I25986600
sg3
F494.0
sg4
F484.0
sg5
F491.0
sg6
g7
(S'\x07\xda\x0b\x1d'
p1354
tp1355
Rp1356
sg11
F491.0
sg12
F487.0
sa(dp1357
g2
I51567900
sg3
F497.0
sg4
F481.0
sg5
F484.0
sg6
g7
(S'\x07\xda\x0b\x1a'
p1358
tp1359
Rp1360
sg11
F484.0
sg12
F494.0
sa(dp1361
g2
I33545700
sg3
F503.0
sg4
F493.0
sg5
F494.0
sg6
g7
(S'\x07\xda\x0b\x19'
p1362
tp1363
Rp1364
sg11
F494.0
sg12
F503.0
sa(dp1365
g2
I48757400
sg3
F500.0
sg4
F488.0
sg5
F495.0
sg6
g7
(S'\x07\xda\x0b\x18'
p1366
tp1367
Rp1368
sg11
F495.0
sg12
F490.0
sa(dp1369
g2
I45741100
sg3
F507.0
sg4
F498.0
sg5
F502.0
sg6
g7
(S'\x07\xda\x0b\x16'
p1370
tp1371
Rp1372
sg11
F502.0
sg12
F502.0
sa(dp1373
g2
I84614900
sg3
F507.0
sg4
F492.0
sg5
F495.0
sg6
g7
(S'\x07\xda\x0b\x13'
p1374
tp1375
Rp1376
sg11
F495.0
sg12
F503.0
sa(dp1377
g2
I61914200
sg3
F488.0
sg4
F463.0
sg5
F487.0
sg6
g7
(S'\x07\xda\x0b\x12'
p1378
tp1379
Rp1380
sg11
F487.0
sg12
F466.0
sa(dp1381
g2
I30261500
sg3
F465.0
sg4
F455.0
sg5
F465.0
sg6
g7
(S'\x07\xda\x0b\x11'
p1382
tp1383
Rp1384
sg11
F465.0
sg12
F460.0
sa(dp1385
g2
I46907000
sg3
F468.0
sg4
F458.0
sg5
F463.0
sg6
g7
(S'\x07\xda\x0b\x10'
p1386
tp1387
Rp1388
sg11
F463.0
sg12
F465.0
sa(dp1389
g2
I27517400
sg3
F467.0
sg4
F456.0
sg5
F460.0
sg6
g7
(S'\x07\xda\x0b\x0f'
p1390
tp1391
Rp1392
sg11
F460.0
sg12
F464.0
sa(dp1393
g2
I45468600
sg3
F465.0
sg4
F453.0
sg5
F457.0
sg6
g7
(S'\x07\xda\x0b\x0c'
p1394
tp1395
Rp1396
sg11
F457.0
sg12
F459.0
sa(dp1397
g2
I62324600
sg3
F470.0
sg4
F451.0
sg5
F463.0
sg6
g7
(S'\x07\xda\x0b\x0b'
p1398
tp1399
Rp1400
sg11
F463.0
sg12
F454.0
sa(dp1401
g2
I49990800
sg3
F451.0
sg4
F441.0
sg5
F447.0
sg6
g7
(S'\x07\xda\x0b\n'
p1402
tp1403
Rp1404
sg11
F447.0
sg12
F441.0
sa(dp1405
g2
I30989300
sg3
F428.0
sg4
F419.0
sg5
F428.0
sg6
g7
(S'\x07\xda\x0b\t'
p1406
tp1407
Rp1408
sg11
F428.0
sg12
F425.0
sa(dp1409
g2
I22475100
sg3
F440.0
sg4
F429.0
sg5
F430.0
sg6
g7
(S'\x07\xda\x0b\x08'
p1410
tp1411
Rp1412
sg11
F430.0
sg12
F439.0
sa(dp1413
g2
I51743900
sg3
F439.0
sg4
F423.0
sg5
F434.0
sg6
g7
(S'\x07\xda\x0b\x05'
p1414
tp1415
Rp1416
sg11
F434.0
sg12
F424.0
sa(dp1417
g2
I44082000
sg3
F423.0
sg4
F415.0
sg5
F416.0
sg6
g7
(S'\x07\xda\x0b\x04'
p1418
tp1419
Rp1420
sg11
F416.0
sg12
F417.0
sa(dp1421
g2
I87387700
sg3
F417.0
sg4
F395.0
sg5
F414.0
sg6
g7
(S'\x07\xda\x0b\x02'
p1422
tp1423
Rp1424
sg11
F414.0
sg12
F400.0
sa(dp1425
g2
I54939600
sg3
F410.0
sg4
F396.0
sg5
F397.0
sg6
g7
(S'\x07\xda\x0b\x01'
p1426
tp1427
Rp1428
sg11
F397.0
sg12
F410.0
sa(dp1429
g2
I45142700
sg3
F432.0
sg4
F416.0
sg5
F418.0
sg6
g7
(S'\x07\xda\n\x1d'
p1430
tp1431
Rp1432
sg11
F418.0
sg12
F427.0
sa(dp1433
g2
I38275400
sg3
F433.0
sg4
F425.0
sg5
F431.0
sg6
g7
(S'\x07\xda\n\x1c'
p1434
tp1435
Rp1436
sg11
F431.0
sg12
F429.0
sa(dp1437
g2
I39832900
sg3
F444.0
sg4
F427.0
sg5
F432.0
sg6
g7
(S'\x07\xda\n\x1b'
p1438
tp1439
Rp1440
sg11
F432.0
sg12
F444.0
sa(dp1441
g2
I45540400
sg3
F442.0
sg4
F435.0
sg5
F437.0
sg6
g7
(S'\x07\xda\n\x1a'
p1442
tp1443
Rp1444
sg11
F437.0
sg12
F440.0
sa(dp1445
g2
I51360800
sg3
F450.0
sg4
F440.0
sg5
F445.0
sg6
g7
(S'\x07\xda\n\x19'
p1446
tp1447
Rp1448
sg11
F445.0
sg12
F441.0
sa(dp1449
g2
I46430200
sg3
F441.0
sg4
F424.0
sg5
F440.0
sg6
g7
(S'\x07\xda\n\x16'
p1450
tp1451
Rp1452
sg11
F440.0
sg12
F426.0
sa(dp1453
g2
I49523100
sg3
F438.0
sg4
F425.0
sg5
F431.0
sg6
g7
(S'\x07\xda\n\x15'
p1454
tp1455
Rp1456
sg11
F431.0
sg12
F430.0
sa(dp1457
g2
I42888600
sg3
F436.0
sg4
F420.0
sg5
F432.0
sg6
g7
(S'\x07\xda\n\x14'
p1458
tp1459
Rp1460
sg11
F432.0
sg12
F425.0
sa(dp1461
g2
I45625300
sg3
F435.0
sg4
F427.0
sg5
F432.0
sg6
g7
(S'\x07\xda\n\x13'
p1462
tp1463
Rp1464
sg11
F432.0
sg12
F428.0
sa(dp1465
g2
I40701900
sg3
F434.0
sg4
F422.0
sg5
F429.0
sg6
g7
(S'\x07\xda\n\x12'
p1466
tp1467
Rp1468
sg11
F429.0
sg12
F422.0
sa(dp1469
g2
I100406200
sg3
F451.0
sg4
F423.0
sg5
F427.0
sg6
g7
(S'\x07\xda\n\x0f'
p1470
tp1471
Rp1472
sg11
F427.0
sg12
F450.0
sa(dp1473
g2
I85133700
sg3
F456.0
sg4
F435.0
sg5
F455.0
sg6
g7
(S'\x07\xda\n\x0e'
p1474
tp1475
Rp1476
sg11
F455.0
sg12
F436.0
sa(dp1477
g2
I46848100
sg3
F447.0
sg4
F429.0
sg5
F431.0
sg6
g7
(S'\x07\xda\n\r'
p1478
tp1479
Rp1480
sg11
F431.0
sg12
F444.0
sa(dp1481
g2
I42454000
sg3
F453.0
sg4
F434.0
sg5
F436.0
sg6
g7
(S'\x07\xda\n\x0c'
p1482
tp1483
Rp1484
sg11
F436.0
sg12
F451.0
sa(dp1485
g2
I62581400
sg3
F453.0
sg4
F442.0
sg5
F449.0
sg6
g7
(S'\x07\xda\n\x08'
p1486
tp1487
Rp1488
sg11
F449.0
sg12
F446.0
sa(dp1489
g2
I83284000
sg3
F452.0
sg4
F437.0
sg5
F445.0
sg6
g7
(S'\x07\xda\n\x07'
p1490
tp1491
Rp1492
sg11
F445.0
sg12
F438.0
sa(dp1493
g2
I91021700
sg3
F437.0
sg4
F412.0
sg5
F435.0
sg6
g7
(S'\x07\xda\n\x06'
p1494
tp1495
Rp1496
sg11
F435.0
sg12
F415.0
sa(dp1497
g2
I70357800
sg3
F410.0
sg4
F397.0
sg5
F407.0
sg6
g7
(S'\x07\xda\n\x05'
p1498
tp1499
Rp1500
sg11
F407.0
sg12
F400.0
sa(dp1501
g2
I42822600
sg3
F417.0
sg4
F401.0
sg5
F402.0
sg6
g7
(S'\x07\xda\n\x04'
p1502
tp1503
Rp1504
sg11
F402.0
sg12
F416.0
sa(dp1505
g2
I49531100
sg3
F416.0
sg4
F402.0
sg5
F414.0
sg6
g7
(S'\x07\xda\n\x01'
p1506
tp1507
Rp1508
sg11
F414.0
sg12
F410.0
sa(dp1509
g2
I33004500
sg3
F415.0
sg4
F403.0
sg5
F404.0
sg6
g7
(S'\x07\xda\t\x1e'
p1510
tp1511
Rp1512
sg11
F404.0
sg12
F411.0
sa(dp1513
g2
I55414500
sg3
F417.0
sg4
F405.0
sg5
F412.0
sg6
g7
(S'\x07\xda\t\x1d'
p1514
tp1515
Rp1516
sg11
F412.0
sg12
F406.0
sa(dp1517
g2
I52938600
sg3
F420.0
sg4
F406.0
sg5
F408.0
sg6
g7
(S'\x07\xda\t\x1c'
p1518
tp1519
Rp1520
sg11
F408.0
sg12
F419.0
sa(dp1521
g2
I43695200
sg3
F429.0
sg4
F419.0
sg5
F422.0
sg6
g7
(S'\x07\xda\t\x1b'
p1522
tp1523
Rp1524
sg11
F422.0
sg12
F429.0
sa(dp1525
g2
I44437000
sg3
F435.0
sg4
F425.0
sg5
F427.0
sg6
g7
(S'\x07\xda\t\x18'
p1526
tp1527
Rp1528
sg11
F427.0
sg12
F426.0
sa(dp1529
g2
I73670000
sg3
F437.0
sg4
F418.0
sg5
F429.0
sg6
g7
(S'\x07\xda\t\x16'
p1530
tp1531
Rp1532
sg11
F429.0
sg12
F420.0
sa(dp1533
g2
I65249700
sg3
F440.0
sg4
F421.0
sg5
F426.0
sg6
g7
(S'\x07\xda\t\x15'
p1534
tp1535
Rp1536
sg11
F426.0
sg12
F440.0
sa(dp1537
g2
I50580100
sg3
F449.0
sg4
F440.0
sg5
F441.0
sg6
g7
(S'\x07\xda\t\x11'
p1538
tp1539
Rp1540
sg11
F441.0
sg12
F448.0
sa(dp1541
g2
I57271400
sg3
F468.0
sg4
F445.0
sg5
F447.0
sg6
g7
(S'\x07\xda\t\x10'
p1542
tp1543
Rp1544
sg11
F447.0
sg12
F467.0
sa(dp1545
g2
I56994400
sg3
F463.0
sg4
F448.0
sg5
F459.0
sg6
g7
(S'\x07\xda\t\x0f'
p1546
tp1547
Rp1548
sg11
F459.0
sg12
F457.0
sa(dp1549
g2
I32990200
sg3
F469.0
sg4
F457.0
sg5
F458.0
sg6
g7
(S'\x07\xda\t\x0e'
p1550
tp1551
Rp1552
sg11
F458.0
sg12
F464.0
sa(dp1553
g2
I35338700
sg3
F470.0
sg4
F460.0
sg5
F464.0
sg6
g7
(S'\x07\xda\t\r'
p1554
tp1555
Rp1556
sg11
F464.0
sg12
F465.0
sa(dp1557
g2
I34152700
sg3
F466.0
sg4
F457.0
sg5
F461.0
sg6
g7
(S'\x07\xda\t\n'
p1558
tp1559
Rp1560
sg11
F461.0
sg12
F461.0
sa(dp1561
g2
I19368900
sg3
F465.0
sg4
F460.0
sg5
F463.0
sg6
g7
(S'\x07\xda\t\t'
p1562
tp1563
Rp1564
sg11
F463.0
sg12
F462.0
sa(dp1565
g2
I24140200
sg3
F471.0
sg4
F460.0
sg5
F464.0
sg6
g7
(S'\x07\xda\t\x08'
p1566
tp1567
Rp1568
sg11
F464.0
sg12
F471.0
sa(dp1569
g2
I14082600
sg3
F484.0
sg4
F476.0
sg5
F479.0
sg6
g7
(S'\x07\xda\t\x07'
p1570
tp1571
Rp1572
sg11
F479.0
sg12
F479.0
sa(dp1573
g2
I26601400
sg3
F486.0
sg4
F473.0
sg5
F483.0
sg6
g7
(S'\x07\xda\t\x06'
p1574
tp1575
Rp1576
sg11
F483.0
sg12
F476.0
sa(dp1577
g2
I23859100
sg3
F481.0
sg4
F469.0
sg5
F473.0
sg6
g7
(S'\x07\xda\t\x03'
p1578
tp1579
Rp1580
sg11
F473.0
sg12
F477.0
sa(dp1581
g2
I23552000
sg3
F479.0
sg4
F463.0
sg5
F472.0
sg6
g7
(S'\x07\xda\t\x02'
p1582
tp1583
Rp1584
sg11
F472.0
sg12
F475.0
sa(dp1585
g2
I28482600
sg3
F473.0
sg4
F461.0
sg5
F469.0
sg6
g7
(S'\x07\xda\t\x01'
p1586
tp1587
Rp1588
sg11
F469.0
sg12
F470.0
sa(dp1589
g2
I23169800
sg3
F485.0
sg4
F471.0
sg5
F473.0
sg6
g7
(S'\x07\xda\x08\x1f'
p1590
tp1591
Rp1592
sg11
F473.0
sg12
F484.0
sa(dp1593
g2
I29243200
sg3
F499.0
sg4
F488.0
sg5
F489.0
sg6
g7
(S'\x07\xda\x08\x1e'
p1594
tp1595
Rp1596
sg11
F489.0
sg12
F490.0
sa(dp1597
g2
I29783100
sg3
F484.0
sg4
F467.0
sg5
F482.0
sg6
g7
(S'\x07\xda\x08\x1b'
p1598
tp1599
Rp1600
sg11
F482.0
sg12
F470.0
sa(dp1601
g2
I34197500
sg3
F487.0
sg4
F470.0
sg5
F475.0
sg6
g7
(S'\x07\xda\x08\x1a'
p1602
tp1603
Rp1604
sg11
F475.0
sg12
F486.0
sa(dp1605
g2
I31858900
sg3
F491.0
sg4
F480.0
sg5
F483.0
sg6
g7
(S'\x07\xda\x08\x19'
p1606
tp1607
Rp1608
sg11
F483.0
sg12
F489.0
sa(dp1609
g2
I23451200
sg3
F497.0
sg4
F492.0
sg5
F495.0
sg6
g7
(S'\x07\xda\x08\x18'
p1610
tp1611
Rp1612
sg11
F495.0
sg12
F495.0
sa(dp1613
g2
I20470300
sg3
F506.0
sg4
F499.0
sg5
F501.0
sg6
g7
(S'\x07\xda\x08\x17'
p1614
tp1615
Rp1616
sg11
F501.0
sg12
F502.0
sa(dp1617
g2
I28642600
sg3
F509.0
sg4
F500.0
sg5
F501.0
sg6
g7
(S'\x07\xda\x08\x14'
p1618
tp1619
Rp1620
sg11
F501.0
sg12
F503.0
sa(dp1621
g2
I31157600
sg3
F514.0
sg4
F498.0
sg5
F511.0
sg6
g7
(S'\x07\xda\x08\x13'
p1622
tp1623
Rp1624
sg11
F511.0
sg12
F498.0
sa(dp1625
g2
I34524300
sg3
F506.0
sg4
F493.0
sg5
F501.0
sg6
g7
(S'\x07\xda\x08\x12'
p1626
tp1627
Rp1628
sg11
F501.0
sg12
F496.0
sa(dp1629
g2
I30363600
sg3
F497.0
sg4
F489.0
sg5
F492.0
sg6
g7
(S'\x07\xda\x08\x11'
p1630
tp1631
Rp1632
sg11
F492.0
sg12
F495.0
sa(dp1633
g2
I23497500
sg3
F502.0
sg4
F492.0
sg5
F500.0
sg6
g7
(S'\x07\xda\x08\x10'
p1634
tp1635
Rp1636
sg11
F500.0
sg12
F496.0
sa(dp1637
g2
I32893000
sg3
F504.0
sg4
F494.0
sg5
F503.0
sg6
g7
(S'\x07\xda\x08\r'
p1638
tp1639
Rp1640
sg11
F503.0
sg12
F496.0
sa(dp1641
g2
I40699900
sg3
F498.0
sg4
F486.0
sg5
F497.0
sg6
g7
(S'\x07\xda\x08\x0c'
p1642
tp1643
Rp1644
sg11
F497.0
sg12
F497.0
sa(dp1645
g2
I31567400
sg3
F517.0
sg4
F507.0
sg5
F508.0
sg6
g7
(S'\x07\xda\x08\x0b'
p1646
tp1647
Rp1648
sg11
F508.0
sg12
F514.0
sa(dp1649
g2
I41115900
sg3
F522.0
sg4
F515.0
sg5
F519.0
sg6
g7
(S'\x07\xda\x08\n'
p1650
tp1651
Rp1652
sg11
F519.0
sg12
F515.0
sa(dp1653
g2
I22199000
sg3
F511.0
sg4
F504.0
sg5
F509.0
sg6
g7
(S'\x07\xda\x08\t'
p1654
tp1655
Rp1656
sg11
F509.0
sg12
F505.0
sa(dp1657
g2
I30146900
sg3
F512.0
sg4
F500.0
sg5
F507.0
sg6
g7
(S'\x07\xda\x08\x06'
p1658
tp1659
Rp1660
sg11
F507.0
sg12
F501.0
sa(dp1661
g2
I28668700
sg3
F508.0
sg4
F493.0
sg5
F502.0
sg6
g7
(S'\x07\xda\x08\x05'
p1662
tp1663
Rp1664
sg11
F502.0
sg12
F506.0
sa(dp1665
g2
I29734300
sg3
F510.0
sg4
F500.0
sg5
F501.0
sg6
g7
(S'\x07\xda\x08\x04'
p1666
tp1667
Rp1668
sg11
F501.0
sg12
F507.0
sa(dp1669
g2
I45406900
sg3
F511.0
sg4
F497.0
sg5
F506.0
sg6
g7
(S'\x07\xda\x08\x03'
p1670
tp1671
Rp1672
sg11
F506.0
sg12
F498.0
sa(dp1673
g2
I24867600
sg3
F495.0
sg4
F485.0
sg5
F488.0
sg6
g7
(S'\x07\xda\x08\x02'
p1674
tp1675
Rp1676
sg11
F488.0
sg12
F493.0
sa(dp1677
g2
I24484200
sg3
F492.0
sg4
F479.0
sg5
F481.0
sg6
g7
(S'\x07\xda\x07\x1e'
p1678
tp1679
Rp1680
sg11
F481.0
sg12
F492.0
sa(dp1681
g2
I17738900
sg3
F498.0
sg4
F488.0
sg5
F489.0
sg6
g7
(S'\x07\xda\x07\x1d'
p1682
tp1683
Rp1684
sg11
F489.0
sg12
F493.0
sa(dp1685
g2
I34458500
sg3
F498.0
sg4
F482.0
sg5
F492.0
sg6
g7
(S'\x07\xda\x07\x1c'
p1686
tp1687
Rp1688
sg11
F492.0
sg12
F483.0
sa(dp1689
g2
I23207900
sg3
F480.0
sg4
F468.0
sg5
F475.0
sg6
g7
(S'\x07\xda\x07\x1b'
p1690
tp1691
Rp1692
sg11
F475.0
sg12
F470.0
sa(dp1693
g2
I23783800
sg3
F480.0
sg4
F468.0
sg5
F469.0
sg6
g7
(S'\x07\xda\x07\x1a'
p1694
tp1695
Rp1696
sg11
F469.0
sg12
F473.0
sa(dp1697
g2
I34078300
sg3
F475.0
sg4
F465.0
sg5
F469.0
sg6
g7
(S'\x07\xda\x07\x17'
p1698
tp1699
Rp1700
sg11
F469.0
sg12
F467.0
sa(dp1701
g2
I32609700
sg3
F466.0
sg4
F453.0
sg5
F460.0
sg6
g7
(S'\x07\xda\x07\x16'
p1702
tp1703
Rp1704
sg11
F460.0
sg12
F454.0
sa(dp1705
g2
I44032700
sg3
F471.0
sg4
F451.0
sg5
F455.0
sg6
g7
(S'\x07\xda\x07\x15'
p1706
tp1707
Rp1708
sg11
F455.0
sg12
F470.0
sa(dp1709
g2
I28922600
sg3
F477.0
sg4
F468.0
sg5
F473.0
sg6
g7
(S'\x07\xda\x07\x14'
p1710
tp1711
Rp1712
sg11
F473.0
sg12
F473.0
sa(dp1713
g2
I22921300
sg3
F492.0
sg4
F479.0
sg5
F483.0
sg6
g7
(S'\x07\xda\x07\x10'
p1714
tp1715
Rp1716
sg11
F483.0
sg12
F487.0
sa(dp1717
g2
I24189600
sg3
F499.0
sg4
F487.0
sg5
F491.0
sg6
g7
(S'\x07\xda\x07\x0f'
p1718
tp1719
Rp1720
sg11
F491.0
sg12
F499.0
sa(dp1721
g2
I22230200
sg3
F507.0
sg4
F500.0
sg5
F502.0
sg6
g7
(S'\x07\xda\x07\x0e'
p1722
tp1723
Rp1724
sg11
F502.0
sg12
F502.0
sa(dp1725
g2
I28316500
sg3
F504.0
sg4
F485.0
sg5
F492.0
sg6
g7
(S'\x07\xda\x07\r'
p1726
tp1727
Rp1728
sg11
F492.0
sg12
F500.0
sa(dp1729
g2
I32818900
sg3
F507.0
sg4
F492.0
sg5
F498.0
sg6
g7
(S'\x07\xda\x07\x0c'
p1730
tp1731
Rp1732
sg11
F498.0
sg12
F493.0
sa(dp1733
g2
I35443200
sg3
F497.0
sg4
F488.0
sg5
F491.0
sg6
g7
(S'\x07\xda\x07\t'
p1734
tp1735
Rp1736
sg11
F491.0
sg12
F492.0
sa(dp1737
g2
I40973300
sg3
F492.0
sg4
F485.0
sg5
F488.0
sg6
g7
(S'\x07\xda\x07\x08'
p1738
tp1739
Rp1740
sg11
F488.0
sg12
F489.0
sa(dp1741
g2
I49977400
sg3
F490.0
sg4
F468.0
sg5
F473.0
sg6
g7
(S'\x07\xda\x07\x07'
p1742
tp1743
Rp1744
sg11
F473.0
sg12
F490.0
sa(dp1745
g2
I51924800
sg3
F489.0
sg4
F468.0
sg5
F489.0
sg6
g7
(S'\x07\xda\x07\x06'
p1746
tp1747
Rp1748
sg11
F489.0
sg12
F478.0
sa(dp1749
g2
I27794400
sg3
F490.0
sg4
F480.0
sg5
F482.0
sg6
g7
(S'\x07\xda\x07\x05'
p1750
tp1751
Rp1752
sg11
F482.0
sg12
F481.0
sa(dp1753
g2
I38347300
sg3
F482.0
sg4
F473.0
sg5
F478.0
sg6
g7
(S'\x07\xda\x07\x02'
p1754
tp1755
Rp1756
sg11
F478.0
sg12
F482.0
sa(dp1757
g2
I28480800
sg3
F489.0
sg4
F481.0
sg5
F481.0
sg6
g7
(S'\x07\xda\x07\x01'
p1758
tp1759
Rp1760
sg11
F481.0
sg12
F486.0
sa(dp1761
g2
I39629400
sg3
F492.0
sg4
F482.0
sg5
F489.0
sg6
g7
(S'\x07\xda\x06\x1e'
p1762
tp1763
Rp1764
sg11
F489.0
sg12
F488.0
sa(dp1765
g2
I28521900
sg3
F507.0
sg4
F497.0
sg5
F499.0
sg6
g7
(S'\x07\xda\x06\x1d'
p1766
tp1767
Rp1768
sg11
F499.0
sg12
F506.0
sa(dp1769
g2
I29090100
sg3
F515.0
sg4
F504.0
sg5
F507.0
sg6
g7
(S'\x07\xda\x06\x1c'
p1770
tp1771
Rp1772
sg11
F507.0
sg12
F515.0
sa(dp1773
g2
I31441000
sg3
F526.0
sg4
F512.0
sg5
F517.0
sg6
g7
(S'\x07\xda\x06\x19'
p1774
tp1775
Rp1776
sg11
F517.0
sg12
F522.0
sa(dp1777
g2
I22230800
sg3
F529.0
sg4
F521.0
sg5
F525.0
sg6
g7
(S'\x07\xda\x06\x18'
p1778
tp1779
Rp1780
sg11
F525.0
sg12
F521.0
sa(dp1781
g2
I20629900
sg3
F534.0
sg4
F528.0
sg5
F528.0
sg6
g7
(S'\x07\xda\x06\x17'
p1782
tp1783
Rp1784
sg11
F528.0
sg12
F532.0
sa(dp1785
g2
I26411500
sg3
F545.0
sg4
F531.0
sg5
F537.0
sg6
g7
(S'\x07\xda\x06\x16'
p1786
tp1787
Rp1788
sg11
F537.0
sg12
F534.0
sa(dp1789
g2
I28491700
sg3
F544.0
sg4
F533.0
sg5
F538.0
sg6
g7
(S'\x07\xda\x06\x15'
p1790
tp1791
Rp1792
sg11
F538.0
sg12
F536.0
sa(dp1793
g2
I19697500
sg3
F542.0
sg4
F530.0
sg5
F535.0
sg6
g7
(S'\x07\xda\x06\x12'
p1794
tp1795
Rp1796
sg11
F535.0
sg12
F541.0
sa(dp1797
g2
I14493400
sg3
F547.0
sg4
F540.0
sg5
F543.0
sg6
g7
(S'\x07\xda\x06\x11'
p1798
tp1799
Rp1800
sg11
F543.0
sg12
F547.0
sa(dp1801
g2
I24580900
sg3
F555.0
sg4
F547.0
sg5
F547.0
sg6
g7
(S'\x07\xda\x06\x10'
p1802
tp1803
Rp1804
sg11
F547.0
sg12
F551.0
sa(dp1805
g2
I41426400
sg3
F554.0
sg4
F534.0
sg5
F541.0
sg6
g7
(S'\x07\xda\x06\x0f'
p1806
tp1807
Rp1808
sg11
F541.0
sg12
F536.0
sa(dp1809
g2
I22044400
sg3
F537.0
sg4
F528.0
sg5
F531.0
sg6
g7
(S'\x07\xda\x06\x0e'
p1810
tp1811
Rp1812
sg11
F531.0
sg12
F533.0
sa(dp1813
g2
I29228200
sg3
F544.0
sg4
F534.0
sg5
F535.0
sg6
g7
(S'\x07\xda\x06\x0b'
p1814
tp1815
Rp1816
sg11
F535.0
sg12
F540.0
sa(dp1817
g2
I26837300
sg3
F530.0
sg4
F522.0
sg5
F530.0
sg6
g7
(S'\x07\xda\x06\n'
p1818
tp1819
Rp1820
sg11
F530.0
sg12
F530.0
sa(dp1821
g2
I31849000
sg3
F528.0
sg4
F515.0
sg5
F524.0
sg6
g7
(S'\x07\xda\x06\t'
p1822
tp1823
Rp1824
sg11
F524.0
sg12
F523.0
sa(dp1825
g2
I27661800
sg3
F537.0
sg4
F530.0
sg5
F532.0
sg6
g7
(S'\x07\xda\x06\x08'
p1826
tp1827
Rp1828
sg11
F532.0
sg12
F533.0
sa(dp1829
g2
I39555200
sg3
F542.0
sg4
F528.0
sg5
F533.0
sg6
g7
(S'\x07\xda\x06\x07'
p1830
tp1831
Rp1832
sg11
F533.0
sg12
F541.0
sa(dp1833
g2
I26382600
sg3
F566.0
sg4
F556.0
sg5
F559.0
sg6
g7
(S'\x07\xda\x06\x04'
p1834
tp1835
Rp1836
sg11
F559.0
sg12
F560.0
sa(dp1837
g2
I33042500
sg3
F568.0
sg4
F555.0
sg5
F561.0
sg6
g7
(S'\x07\xda\x06\x03'
p1838
tp1839
Rp1840
sg11
F561.0
sg12
F566.0
sa(dp1841
g2
I29635200
sg3
F570.0
sg4
F556.0
sg5
F561.0
sg6
g7
(S'\x07\xda\x06\x02'
p1842
tp1843
Rp1844
sg11
F561.0
sg12
F561.0
sa(dp1845
g2
I24069000
sg3
F572.0
sg4
F560.0
sg5
F569.0
sg6
g7
(S'\x07\xda\x06\x01'
p1846
tp1847
Rp1848
sg11
F569.0
sg12
F564.0
sa(dp1849
g2
I20514000
sg3
F576.0
sg4
F563.0
sg5
F566.0
sg6
g7
(S'\x07\xda\x05\x1f'
p1850
tp1851
Rp1852
sg11
F566.0
sg12
F566.0
sa(dp1853
g2
I39417200
sg3
F582.0
sg4
F561.0
sg5
F567.0
sg6
g7
(S'\x07\xda\x05\x1c'
p1854
tp1855
Rp1856
sg11
F567.0
sg12
F577.0
sa(dp1857
g2
I43046800
sg3
F571.0
sg4
F547.0
sg5
F569.0
sg6
g7
(S'\x07\xda\x05\x1b'
p1858
tp1859
Rp1860
sg11
F569.0
sg12
F547.0
sa(dp1861
g2
I46839500
sg3
F563.0
sg4
F544.0
sg5
F551.0
sg6
g7
(S'\x07\xda\x05\x1a'
p1862
tp1863
Rp1864
sg11
F551.0
sg12
F552.0
sa(dp1865
g2
I36745500
sg3
F557.0
sg4
F545.0
sg5
F548.0
sg6
g7
(S'\x07\xda\x05\x19'
p1866
tp1867
Rp1868
sg11
F548.0
sg12
F551.0
sa(dp1869
g2
I48905200
sg3
F564.0
sg4
F551.0
sg5
F557.0
sg6
g7
(S'\x07\xda\x05\x18'
p1870
tp1871
Rp1872
sg11
F557.0
sg12
F563.0
sa(dp1873
g2
I53204500
sg3
F567.0
sg4
F549.0
sg5
F566.0
sg6
g7
(S'\x07\xda\x05\x15'
p1874
tp1875
Rp1876
sg11
F566.0
sg12
F550.0
sa(dp1877
g2
I43399900
sg3
F577.0
sg4
F565.0
sg5
F568.0
sg6
g7
(S'\x07\xda\x05\x14'
p1878
tp1879
Rp1880
sg11
F568.0
sg12
F572.0
sa(dp1881
g2
I45879100
sg3
F578.0
sg4
F566.0
sg5
F578.0
sg6
g7
(S'\x07\xda\x05\x13'
p1882
tp1883
Rp1884
sg11
F578.0
sg12
F573.0
sa(dp1885
g2
I37371800
sg3
F605.0
sg4
F584.0
sg5
F585.0
sg6
g7
(S'\x07\xda\x05\x12'
p1886
tp1887
Rp1888
sg11
F585.0
sg12
F605.0
sa(dp1889
g2
I36464500
sg3
F609.0
sg4
F594.0
sg5
F598.0
sg6
g7
(S'\x07\xda\x05\x11'
p1890
tp1891
Rp1892
sg11
F598.0
sg12
F602.0
sa(dp1893
g2
I43578300
sg3
F615.0
sg4
F597.0
sg5
F607.0
sg6
g7
(S'\x07\xda\x05\x0e'
p1894
tp1895
Rp1896
sg11
F607.0
sg12
F602.0
sa(dp1897
g2
I37527900
sg3
F617.0
sg4
F604.0
sg5
F610.0
sg6
g7
(S'\x07\xda\x05\r'
p1898
tp1899
Rp1900
sg11
F610.0
sg12
F604.0
sa(dp1901
g2
I48938800
sg3
F606.0
sg4
F589.0
sg5
F595.0
sg6
g7
(S'\x07\xda\x05\x0c'
p1902
tp1903
Rp1904
sg11
F595.0
sg12
F601.0
sa(dp1905
g2
I41451500
sg3
F629.0
sg4
F600.0
sg5
F606.0
sg6
g7
(S'\x07\xda\x05\x0b'
p1906
tp1907
Rp1908
sg11
F606.0
sg12
F628.0
sa(dp1909
g2
I43028400
sg3
F629.0
sg4
F606.0
sg5
F618.0
sg6
g7
(S'\x07\xda\x05\n'
p1910
tp1911
Rp1912
sg11
F618.0
sg12
F609.0
sa(dp1913
g2
I67532700
sg3
F613.0
sg4
F593.0
sg5
F608.0
sg6
g7
(S'\x07\xda\x05\x07'
p1914
tp1915
Rp1916
sg11
F608.0
sg12
F594.0
sa(dp1917
g2
I60249700
sg3
F641.0
sg4
F620.0
sg5
F624.0
sg6
g7
(S'\x07\xda\x05\x06'
p1918
tp1919
Rp1920
sg11
F624.0
sg12
F640.0
sa(dp1921
g2
I64665300
sg3
F672.0
sg4
F649.0
sg5
F655.0
sg6
g7
(S'\x07\xda\x04\x1e'
p1922
tp1923
Rp1924
sg11
F655.0
sg12
F669.0
sa(dp1925
g2
I33280900
sg3
F665.0
sg4
F647.0
sg5
F662.0
sg6
g7
(S'\x07\xda\x04\x1c'
p1926
tp1927
Rp1928
sg11
F662.0
sg12
F650.0
sa(dp1929
g2
I29826400
sg3
F675.0
sg4
F664.0
sg5
F669.0
sg6
g7
(S'\x07\xda\x04\x1b'
p1930
tp1931
Rp1932
sg11
F669.0
sg12
F670.0
sa(dp1933
g2
I30581100
sg3
F681.0
sg4
F663.0
sg5
F676.0
sg6
g7
(S'\x07\xda\x04\x1a'
p1934
tp1935
Rp1936
sg11
F676.0
sg12
F664.0
sa(dp1937
g2
I29516800
sg3
F663.0
sg4
F653.0
sg5
F659.0
sg6
g7
(S'\x07\xda\x04\x17'
p1938
tp1939
Rp1940
sg11
F659.0
sg12
F655.0
sa(dp1941
g2
I30831800
sg3
F665.0
sg4
F656.0
sg5
F660.0
sg6
g7
(S'\x07\xda\x04\x16'
p1942
tp1943
Rp1944
sg11
F660.0
sg12
F664.0
sa(dp1945
g2
I36919500
sg3
F674.0
sg4
F666.0
sg5
F667.0
sg6
g7
(S'\x07\xda\x04\x15'
p1946
tp1947
Rp1948
sg11
F667.0
sg12
F673.0
sa(dp1949
g2
I30312700
sg3
F676.0
sg4
F665.0
sg5
F668.0
sg6
g7
(S'\x07\xda\x04\x14'
p1950
tp1951
Rp1952
sg11
F668.0
sg12
F675.0
sa(dp1953
g2
I41464300
sg3
F671.0
sg4
F661.0
sg5
F669.0
sg6
g7
(S'\x07\xda\x04\x13'
p1954
tp1955
Rp1956
sg11
F669.0
sg12
F668.0
sa(dp1957
g2
I24274200
sg3
F696.0
sg4
F686.0
sg5
F688.0
sg6
g7
(S'\x07\xda\x04\x10'
p1958
tp1959
Rp1960
sg11
F688.0
sg12
F692.0
sa(dp1961
g2
I20477900
sg3
F701.0
sg4
F692.0
sg5
F693.0
sg6
g7
(S'\x07\xda\x04\x0f'
p1962
tp1963
Rp1964
sg11
F693.0
sg12
F701.0
sa(dp1965
g2
I35962700
sg3
F699.0
sg4
F685.0
sg5
F692.0
sg6
g7
(S'\x07\xda\x04\x0e'
p1966
tp1967
Rp1968
sg11
F692.0
sg12
F698.0
sa(dp1969
g2
I24597500
sg3
F707.0
sg4
F693.0
sg5
F702.0
sg6
g7
(S'\x07\xda\x04\r'
p1970
tp1971
Rp1972
sg11
F702.0
sg12
F706.0
sa(dp1973
g2
I31494500
sg3
F715.0
sg4
F705.0
sg5
F707.0
sg6
g7
(S'\x07\xda\x04\x0c'
p1974
tp1975
Rp1976
sg11
F707.0
sg12
F712.0
sa(dp1977
g2
I25817500
sg3
F712.0
sg4
F700.0
sg5
F706.0
sg6
g7
(S'\x07\xda\x04\t'
p1978
tp1979
Rp1980
sg11
F706.0
sg12
F707.0
sa(dp1981
g2
I36476200
sg3
F716.0
sg4
F697.0
sg5
F698.0
sg6
g7
(S'\x07\xda\x04\x08'
p1982
tp1983
Rp1984
sg11
F698.0
sg12
F704.0
sa(dp1985
g2
I49878600
sg3
F717.0
sg4
F695.0
sg5
F707.0
sg6
g7
(S'\x07\xda\x04\x07'
p1986
tp1987
Rp1988
sg11
F707.0
sg12
F696.0
sa(dp1989
g2
I22780400
sg3
F695.0
sg4
F683.0
sg5
F694.0
sg6
g7
(S'\x07\xda\x04\x06'
p1990
tp1991
Rp1992
sg11
F694.0
sg12
F693.0
sa(dp1993
g2
I16507300
sg3
F703.0
sg4
F692.0
sg5
F693.0
sg6
g7
(S'\x07\xda\x04\x05'
p1994
tp1995
Rp1996
sg11
F693.0
sg12
F702.0
sa(dp1997
g2
I22847500
sg3
F699.0
sg4
F690.0
sg5
F694.0
sg6
g7
(S'\x07\xda\x04\x02'
p1998
tp1999
Rp2000
sg11
F694.0
sg12
F697.0
sa(dp2001
g2
I24227400
sg3
F693.0
sg4
F682.0
sg5
F689.0
sg6
g7
(S'\x07\xda\x04\x01'
p2002
tp2003
Rp2004
sg11
F689.0
sg12
F690.0
sa(dp2005
g2
I36769600
sg3
F702.0
sg4
F681.0
sg5
F689.0
sg6
g7
(S'\x07\xda\x03\x1f'
p2006
tp2007
Rp2008
sg11
F689.0
sg12
F702.0
sa(dp2009
g2
I27959500
sg3
F708.0
sg4
F698.0
sg5
F702.0
sg6
g7
(S'\x07\xda\x03\x1e'
p2010
tp2011
Rp2012
sg11
F702.0
sg12
F707.0
sa(dp2013
g2
I29782600
sg3
F700.0
sg4
F677.0
sg5
F699.0
sg6
g7
(S'\x07\xda\x03\x1d'
p2014
tp2015
Rp2016
sg11
F699.0
sg12
F679.0
sa(dp2017
g2
I25026500
sg3
F685.0
sg4
F670.0
sg5
F683.0
sg6
g7
(S'\x07\xda\x03\x1a'
p2018
tp2019
Rp2020
sg11
F683.0
sg12
F672.0
sa(dp2021
g2
I18490800
sg3
F675.0
sg4
F665.0
sg5
F668.0
sg6
g7
(S'\x07\xda\x03\x19'
p2022
tp2023
Rp2024
sg11
F668.0
sg12
F672.0
sa(dp2025
g2
I16309300
sg3
F670.0
sg4
F662.0
sg5
F669.0
sg6
g7
(S'\x07\xda\x03\x18'
p2026
tp2027
Rp2028
sg11
F669.0
sg12
F666.0
sa(dp2029
g2
I15254600
sg3
F668.0
sg4
F660.0
sg5
F661.0
sg6
g7
(S'\x07\xda\x03\x17'
p2030
tp2031
Rp2032
sg11
F661.0
sg12
F665.0
sa(dp2033
g2
I16784300
sg3
F675.0
sg4
F668.0
sg5
F670.0
sg6
g7
(S'\x07\xda\x03\x13'
p2034
tp2035
Rp2036
sg11
F670.0
sg12
F674.0
sa(dp2037
g2
I22637000
sg3
F684.0
sg4
F670.0
sg5
F672.0
sg6
g7
(S'\x07\xda\x03\x12'
p2038
tp2039
Rp2040
sg11
F672.0
sg12
F684.0
sa(dp2041
g2
I22254900
sg3
F693.0
sg4
F679.0
sg5
F684.0
sg6
g7
(S'\x07\xda\x03\x11'
p2042
tp2043
Rp2044
sg11
F684.0
sg12
F692.0
sa(dp2045
g2
I22964500
sg3
F691.0
sg4
F680.0
sg5
F685.0
sg6
g7
(S'\x07\xda\x03\x10'
p2046
tp2047
Rp2048
sg11
F685.0
sg12
F681.0
sa(dp2049
g2
I31329500
sg3
F688.0
sg4
F678.0
sg5
F685.0
sg6
g7
(S'\x07\xda\x03\x0f'
p2050
tp2051
Rp2052
sg11
F685.0
sg12
F678.0
sa(dp2053
g2
I32680700
sg3
F669.0
sg4
F660.0
sg5
F668.0
sg6
g7
(S'\x07\xda\x03\x0c'
p2054
tp2055
Rp2056
sg11
F668.0
sg12
F664.0
sa(dp2057
g2
I20977600
sg3
F663.0
sg4
F654.0
sg5
F657.0
sg6
g7
(S'\x07\xda\x03\x0b'
p2058
tp2059
Rp2060
sg11
F657.0
sg12
F655.0
sa(dp2061
g2
I15215900
sg3
F661.0
sg4
F650.0
sg5
F651.0
sg6
g7
(S'\x07\xda\x03\n'
p2062
tp2063
Rp2064
sg11
F651.0
sg12
F657.0
sa(dp2065
g2
I12973900
sg3
F665.0
sg4
F658.0
sg5
F660.0
sg6
g7
(S'\x07\xda\x03\t'
p2066
tp2067
Rp2068
sg11
F660.0
sg12
F664.0
sa(dp2069
g2
I25363100
sg3
F663.0
sg4
F656.0
sg5
F662.0
sg6
g7
(S'\x07\xda\x03\x08'
p2070
tp2071
Rp2072
sg11
F662.0
sg12
F660.0
sa(dp2073
g2
I20295600
sg3
F647.0
sg4
F638.0
sg5
F646.0
sg6
g7
(S'\x07\xda\x03\x05'
p2074
tp2075
Rp2076
sg11
F646.0
sg12
F641.0
sa(dp2077
g2
I28145000
sg3
F645.0
sg4
F631.0
sg5
F633.0
sg6
g7
(S'\x07\xda\x03\x04'
p2078
tp2079
Rp2080
sg11
F633.0
sg12
F644.0
sa(dp2081
g2
I22983300
sg3
F654.0
sg4
F638.0
sg5
F640.0
sg6
g7
(S'\x07\xda\x03\x03'
p2082
tp2083
Rp2084
sg11
F640.0
sg12
F650.0
sa(dp2085
g2
I16062800
sg3
F660.0
sg4
F646.0
sg5
F654.0
sg6
g7
(S'\x07\xda\x03\x02'
p2086
tp2087
Rp2088
sg11
F654.0
sg12
F659.0
sa(dp2089
g2
I14670800
sg3
F662.0
sg4
F653.0
sg5
F657.0
sg6
g7
(S'\x07\xda\x03\x01'
p2090
tp2091
Rp2092
sg11
F657.0
sg12
F655.0
sa(dp2093
g2
I25224300
sg3
F659.0
sg4
F649.0
sg5
F656.0
sg6
g7
(S'\x07\xda\x02\x1a'
p2094
tp2095
Rp2096
sg11
F656.0
sg12
F657.0
sa(dp2097
g2
I20887900
sg3
F659.0
sg4
F643.0
sg5
F646.0
sg6
g7
(S'\x07\xda\x02\x19'
p2098
tp2099
Rp2100
sg11
F646.0
sg12
F656.0
sa(dp2101
g2
I17878400
sg3
F659.0
sg4
F651.0
sg5
F656.0
sg6
g7
(S'\x07\xda\x02\x18'
p2102
tp2103
Rp2104
sg11
F656.0
sg12
F657.0
sa(dp2105
g2
I22102200
sg3
F669.0
sg4
F658.0
sg5
F666.0
sg6
g7
(S'\x07\xda\x02\x17'
p2106
tp2107
Rp2108
sg11
F666.0
sg12
F662.0
sa(dp2109
g2
I17944300
sg3
F664.0
sg4
F656.0
sg5
F658.0
sg6
g7
(S'\x07\xda\x02\x16'
p2110
tp2111
Rp2112
sg11
F658.0
sg12
F659.0
sa(dp2113
g2
I20763300
sg3
F663.0
sg4
F640.0
sg5
F643.0
sg6
g7
(S'\x07\xda\x02\x13'
p2114
tp2115
Rp2116
sg11
F643.0
sg12
F661.0
sa(dp2117
g2
I19404100
sg3
F670.0
sg4
F657.0
sg5
F659.0
sg6
g7
(S'\x07\xda\x02\x12'
p2118
tp2119
Rp2120
sg11
F659.0
sg12
F662.0
sa(dp2121
g2
I26606200
sg3
F663.0
sg4
F645.0
sg5
F659.0
sg6
g7
(S'\x07\xda\x02\x11'
p2122
tp2123
Rp2124
sg11
F659.0
sg12
F649.0
sa(dp2125
g2
I16155100
sg3
F645.0
sg4
F633.0
sg5
F639.0
sg6
g7
(S'\x07\xda\x02\x10'
p2126
tp2127
Rp2128
sg11
F639.0
sg12
F634.0
sa(dp2129
g2
I15046100
sg3
F641.0
sg4
F631.0
sg5
F632.0
sg6
g7
(S'\x07\xda\x02\x0f'
p2130
tp2131
Rp2132
sg11
F632.0
sg12
F639.0
sa(dp2133
g2
I24504500
sg3
F644.0
sg4
F635.0
sg5
F641.0
sg6
g7
(S'\x07\xda\x02\x0c'
p2134
tp2135
Rp2136
sg11
F641.0
sg12
F635.0
sa(dp2137
g2
I24312800
sg3
F653.0
sg4
F634.0
sg5
F634.0
sg6
g7
(S'\x07\xda\x02\n'
p2138
tp2139
Rp2140
sg11
F634.0
sg12
F651.0
sa(dp2141
g2
I25863200
sg3
F646.0
sg4
F633.0
sg5
F641.0
sg6
g7
(S'\x07\xda\x02\t'
p2142
tp2143
Rp2144
sg11
F641.0
sg12
F635.0
sa(dp2145
g2
I35534000
sg3
F652.0
sg4
F636.0
sg5
F644.0
sg6
g7
(S'\x07\xda\x02\x08'
p2146
tp2147
Rp2148
sg11
F644.0
sg12
F642.0
sa(dp2149
g2
I54477400
sg3
F648.0
sg4
F631.0
sg5
F637.0
sg6
g7
(S'\x07\xda\x02\x05'
p2150
tp2151
Rp2152
sg11
F637.0
sg12
F636.0
sa(dp2153
g2
I40062500
sg3
F685.0
sg4
F658.0
sg5
F666.0
sg6
g7
(S'\x07\xda\x02\x04'
p2154
tp2155
Rp2156
sg11
F666.0
sg12
F683.0
sa(dp2157
g2
I55651000
sg3
F715.0
sg4
F685.0
sg5
F685.0
sg6
g7
(S'\x07\xda\x02\x03'
p2158
tp2159
Rp2160
sg11
F685.0
sg12
F709.0
sa(dp2161
g2
I45460500
sg3
F707.0
sg4
F685.0
sg5
F705.0
sg6
g7
(S'\x07\xda\x02\x02'
p2162
tp2163
Rp2164
sg11
F705.0
sg12
F689.0
sa(dp2165
g2
I33779600
sg3
F687.0
sg4
F670.0
sg5
F679.0
sg6
g7
(S'\x07\xda\x02\x01'
p2166
tp2167
Rp2168
sg11
F679.0
sg12
F684.0
sa(dp2169
g2
I28781100
sg3
F693.0
sg4
F682.0
sg5
F684.0
sg6
g7
(S'\x07\xda\x01\x1d'
p2170
tp2171
Rp2172
sg11
F684.0
sg12
F685.0
sa(dp2173
g2
I29836800
sg3
F703.0
sg4
F688.0
sg5
F691.0
sg6
g7
(S'\x07\xda\x01\x1c'
p2174
tp2175
Rp2176
sg11
F691.0
sg12
F693.0
sa(dp2177
g2
I34158000
sg3
F701.0
sg4
F684.0
sg5
F685.0
sg6
g7
(S'\x07\xda\x01\x1b'
p2178
tp2179
Rp2180
sg11
F685.0
sg12
F693.0
sa(dp2181
g2
I43958900
sg3
F718.0
sg4
F691.0
sg5
F691.0
sg6
g7
(S'\x07\xda\x01\x1a'
p2182
tp2183
Rp2184
sg11
F691.0
sg12
F702.0
sa(dp2185
g2
I35642000
sg3
F703.0
sg4
F691.0
sg5
F698.0
sg6
g7
(S'\x07\xda\x01\x19'
p2186
tp2187
Rp2188
sg11
F698.0
sg12
F692.0
sa(dp2189
g2
I58050400
sg3
F709.0
sg4
F693.0
sg5
F707.0
sg6
g7
(S'\x07\xda\x01\x16'
p2190
tp2191
Rp2192
sg11
F707.0
sg12
F697.0
sa(dp2193
g2
I59367400
sg3
F727.0
sg4
F695.0
sg5
F724.0
sg6
g7
(S'\x07\xda\x01\x15'
p2194
tp2195
Rp2196
sg11
F724.0
sg12
F702.0
sa(dp2197
g2
I52641100
sg3
F737.0
sg4
F708.0
sg5
F711.0
sg6
g7
(S'\x07\xda\x01\x14'
p2198
tp2199
Rp2200
sg11
F711.0
sg12
F730.0
sa(dp2201
g2
I27000000
sg3
F756.0
sg4
F734.0
sg5
F739.0
sg6
g7
(S'\x07\xda\x01\x13'
p2202
tp2203
Rp2204
sg11
F739.0
sg12
F755.0
sa(dp2205
g2
I27799800
sg3
F761.0
sg4
F750.0
sg5
F753.0
sg6
g7
(S'\x07\xda\x01\x12'
p2206
tp2207
Rp2208
sg11
F753.0
sg12
F758.0
sa(dp2209
g2
I34867900
sg3
F775.0
sg4
F758.0
sg5
F775.0
sg6
g7
(S'\x07\xda\x01\x0f'
p2210
tp2211
Rp2212
sg11
F775.0
sg12
F773.0
sa(dp2213
g2
I29527500
sg3
F778.0
sg4
F765.0
sg5
F769.0
sg6
g7
(S'\x07\xda\x01\x0e'
p2214
tp2215
Rp2216
sg11
F769.0
sg12
F773.0
sa(dp2217
g2
I43557800
sg3
F776.0
sg4
F752.0
sg5
F754.0
sg6
g7
(S'\x07\xda\x01\r'
p2218
tp2219
Rp2220
sg11
F754.0
sg12
F763.0
sa(dp2221
g2
I59255800
sg3
F783.0
sg4
F753.0
sg5
F778.0
sg6
g7
(S'\x07\xda\x01\x0c'
p2222
tp2223
Rp2224
sg11
F778.0
sg12
F755.0
sa(dp2225
g2
I52730100
sg3
F752.0
sg4
F736.0
sg5
F750.0
sg6
g7
(S'\x07\xda\x01\x08'
p2226
tp2227
Rp2228
sg11
F750.0
sg12
F750.0
sa(dp2229
g2
I55679400
sg3
F741.0
sg4
F716.0
sg5
F736.0
sg6
g7
(S'\x07\xda\x01\x07'
p2230
tp2231
Rp2232
sg11
F736.0
sg12
F720.0
sa(dp2233
g2
I38357600
sg3
F717.0
sg4
F695.0
sg5
F712.0
sg6
g7
(S'\x07\xda\x01\x06'
p2234
tp2235
Rp2236
sg11
F712.0
sg12
F701.0
sa(dp2237
g2
I52393600
sg3
F710.0
sg4
F692.0
sg5
F694.0
sg6
g7
(S'\x07\xda\x01\x05'
p2238
tp2239
Rp2240
sg11
F694.0
sg12
F699.0
sa(dp2241
g2
I14995200
sg3
F693.0
sg4
F681.0
sg5
F686.0
sg6
g7
(S'\x07\xda\x01\x04'
p2242
tp2243
Rp2244
sg11
F686.0
sg12
F686.0
sa(dp2245
g2
I16532100
sg3
F695.0
sg4
F677.0
sg5
F681.0
sg6
g7
(S'\x07\xd9\x0c\x1e'
p2246
tp2247
Rp2248
sg11
F681.0
sg12
F694.0
sa(dp2249
g2
I19506800
sg3
F694.0
sg4
F682.0
sg5
F687.0
sg6
g7
(S'\x07\xd9\x0c\x1d'
p2250
tp2251
Rp2252
sg11
F687.0
sg12
F685.0
sa(dp2253
g2
I20978600
sg3
F698.0
sg4
F682.0
sg5
F682.0
sg6
g7
(S'\x07\xd9\x0c\x1c'
p2254
tp2255
Rp2256
sg11
F682.0
sg12
F689.0
sa(dp2257
g2
I15166300
sg3
F699.0
sg4
F688.0
sg5
F688.0
sg6
g7
(S'\x07\xd9\x0c\x19'
p2258
tp2259
Rp2260
sg11
F688.0
sg12
F698.0
sa(dp2261
g2
I28415800
sg3
F697.0
sg4
F685.0
sg5
F693.0
sg6
g7
(S'\x07\xd9\x0c\x18'
p2262
tp2263
Rp2264
sg11
F693.0
sg12
F690.0
sa(dp2265
g2
I20973800
sg3
F683.0
sg4
F673.0
sg5
F681.0
sg6
g7
(S'\x07\xd9\x0c\x16'
p2266
tp2267
Rp2268
sg11
F681.0
sg12
F674.0
sa(dp2269
g2
I15205600
sg3
F675.0
sg4
F667.0
sg5
F670.0
sg6
g7
(S'\x07\xd9\x0c\x15'
p2270
tp2271
Rp2272
sg11
F670.0
sg12
F673.0
sa(dp2273
g2
I28704300
sg3
F674.0
sg4
F662.0
sg5
F672.0
sg6
g7
(S'\x07\xd9\x0c\x12'
p2274
tp2275
Rp2276
sg11
F672.0
sg12
F673.0
sa(dp2277
g2
I27011200
sg3
F691.0
sg4
F676.0
sg5
F677.0
sg6
g7
(S'\x07\xd9\x0c\x11'
p2278
tp2279
Rp2280
sg11
F677.0
sg12
F690.0
sa(dp2281
g2
I55878100
sg3
F698.0
sg4
F676.0
sg5
F684.0
sg6
g7
(S'\x07\xd9\x0c\x10'
p2282
tp2283
Rp2284
sg11
F684.0
sg12
F689.0
sa(dp2285
g2
I29760200
sg3
F674.0
sg4
F656.0
sg5
F664.0
sg6
g7
(S'\x07\xd9\x0c\x0f'
p2286
tp2287
Rp2288
sg11
F664.0
sg12
F656.0
sa(dp2289
g2
I49027300
sg3
F689.0
sg4
F656.0
sg5
F663.0
sg6
g7
(S'\x07\xd9\x0c\x0e'
p2290
tp2291
Rp2292
sg11
F663.0
sg12
F684.0
sa(dp2293
g2
I52394900
sg3
F680.0
sg4
F657.0
sg5
F677.0
sg6
g7
(S'\x07\xd9\x0c\x0b'
p2294
tp2295
Rp2296
sg11
F677.0
sg12
F665.0
sa(dp2297
g2
I57632400
sg3
F681.0
sg4
F653.0
sg5
F655.0
sg6
g7
(S'\x07\xd9\x0c\n'
p2298
tp2299
Rp2300
sg11
F655.0
sg12
F660.0
sa(dp2301
g2
I53408100
sg3
F678.0
sg4
F659.0
sg5
F662.0
sg6
g7
(S'\x07\xd9\x0c\t'
p2302
tp2303
Rp2304
sg11
F662.0
sg12
F675.0
sa(dp2305
g2
I33038000
sg3
F698.0
sg4
F684.0
sg5
F695.0
sg6
g7
(S'\x07\xd9\x0c\x08'
p2306
tp2307
Rp2308
sg11
F695.0
sg12
F685.0
sa(dp2309
g2
I38585200
sg3
F717.0
sg4
F695.0
sg5
F702.0
sg6
g7
(S'\x07\xd9\x0c\x07'
p2310
tp2311
Rp2312
sg11
F702.0
sg12
F710.0
sa(dp2313
g2
I83810900
sg3
F705.0
sg4
F681.0
sg5
F701.0
sg6
g7
(S'\x07\xd9\x0c\x04'
p2314
tp2315
Rp2316
sg11
F701.0
sg12
F691.0
sa(dp2317
g2
I50125200
sg3
F676.0
sg4
F663.0
sg5
F671.0
sg6
g7
(S'\x07\xd9\x0c\x03'
p2318
tp2319
Rp2320
sg11
F671.0
sg12
F664.0
sa(dp2321
g2
I54028400
sg3
F654.0
sg4
F634.0
sg5
F649.0
sg6
g7
(S'\x07\xd9\x0c\x02'
p2322
tp2323
Rp2324
sg11
F649.0
sg12
F645.0
sa(dp2325
g2
I50595800
sg3
F650.0
sg4
F612.0
sg5
F647.0
sg6
g7
(S'\x07\xd9\x0c\x01'
p2326
tp2327
Rp2328
sg11
F647.0
sg12
F617.0
sa(dp2329
g2
I51105800
sg3
F626.0
sg4
F605.0
sg5
F622.0
sg6
g7
(S'\x07\xd9\x0b\x1e'
p2330
tp2331
Rp2332
sg11
F622.0
sg12
F608.0
sa(dp2333
g2
I50705300
sg3
F607.0
sg4
F582.0
sg5
F592.0
sg6
g7
(S'\x07\xd9\x0b\x1b'
p2334
tp2335
Rp2336
sg11
F592.0
sg12
F592.0
sa(dp2337
g2
I38151900
sg3
F612.0
sg4
F589.0
sg5
F600.0
sg6
g7
(S'\x07\xd9\x0b\x1a'
p2338
tp2339
Rp2340
sg11
F600.0
sg12
F591.0
sa(dp2341
g2
I29271900
sg3
F599.0
sg4
F582.0
sg5
F593.0
sg6
g7
(S'\x07\xd9\x0b\x19'
p2342
tp2343
Rp2344
sg11
F593.0
sg12
F589.0
sa(dp2345
g2
I34511600
sg3
F614.0
sg4
F591.0
sg5
F597.0
sg6
g7
(S'\x07\xd9\x0b\x18'
p2346
tp2347
Rp2348
sg11
F597.0
sg12
F609.0
sa(dp2349
g2
I52481300
sg3
F606.0
sg4
F579.0
sg5
F603.0
sg6
g7
(S'\x07\xd9\x0b\x14'
p2350
tp2351
Rp2352
sg11
F603.0
sg12
F580.0
sa(dp2353
g2
I55852500
sg3
F606.0
sg4
F578.0
sg5
F585.0
sg6
g7
(S'\x07\xd9\x0b\x13'
p2354
tp2355
Rp2356
sg11
F585.0
sg12
F605.0
sa(dp2357
g2
I45182700
sg3
F616.0
sg4
F597.0
sg5
F615.0
sg6
g7
(S'\x07\xd9\x0b\x12'
p2358
tp2359
Rp2360
sg11
F615.0
sg12
F609.0
sa(dp2361
g2
I39575400
sg3
F630.0
sg4
F615.0
sg5
F618.0
sg6
g7
(S'\x07\xd9\x0b\x11'
p2362
tp2363
Rp2364
sg11
F618.0
sg12
F629.0
sa(dp2365
g2
I30026200
sg3
F631.0
sg4
F621.0
sg5
F625.0
sg6
g7
(S'\x07\xd9\x0b\x10'
p2366
tp2367
Rp2368
sg11
F625.0
sg12
F630.0
sa(dp2369
g2
I23962700
sg3
F636.0
sg4
F626.0
sg5
F633.0
sg6
g7
(S'\x07\xd9\x0b\r'
p2370
tp2371
Rp2372
sg11
F633.0
sg12
F630.0
sa(dp2373
g2
I33991000
sg3
F649.0
sg4
F628.0
sg5
F632.0
sg6
g7
(S'\x07\xd9\x0b\x0c'
p2374
tp2375
Rp2376
sg11
F632.0
sg12
F645.0
sa(dp2377
g2
I31591400
sg3
F650.0
sg4
F632.0
sg5
F638.0
sg6
g7
(S'\x07\xd9\x0b\x0b'
p2378
tp2379
Rp2380
sg11
F638.0
sg12
F636.0
sa(dp2381
g2
I46026300
sg3
F648.0
sg4
F627.0
sg5
F638.0
sg6
g7
(S'\x07\xd9\x0b\n'
p2382
tp2383
Rp2384
sg11
F638.0
sg12
F632.0
sa(dp2385
g2
I24226900
sg3
F627.0
sg4
F618.0
sg5
F620.0
sg6
g7
(S'\x07\xd9\x0b\t'
p2386
tp2387
Rp2388
sg11
F620.0
sg12
F621.0
sa(dp2389
g2
I31120700
sg3
F640.0
sg4
F625.0
sg5
F631.0
sg6
g7
(S'\x07\xd9\x0b\x06'
p2390
tp2391
Rp2392
sg11
F631.0
sg12
F640.0
sa(dp2393
g2
I54745700
sg3
F644.0
sg4
F618.0
sg5
F630.0
sg6
g7
(S'\x07\xd9\x0b\x05'
p2394
tp2395
Rp2396
sg11
F630.0
sg12
F640.0
sa(dp2397
g2
I35846500
sg3
F648.0
sg4
F636.0
sg5
F638.0
sg6
g7
(S'\x07\xd9\x0b\x04'
p2398
tp2399
Rp2400
sg11
F638.0
sg12
F639.0
sa(dp2401
g2
I34904400
sg3
F643.0
sg4
F634.0
sg5
F641.0
sg6
g7
(S'\x07\xd9\x0b\x02'
p2402
tp2403
Rp2404
sg11
F641.0
sg12
F635.0
sa(dp2405
g2
I46855200
sg3
F659.0
sg4
F640.0
sg5
F655.0
sg6
g7
(S'\x07\xd9\n\x1e'
p2406
tp2407
Rp2408
sg11
F655.0
sg12
F654.0
sa(dp2409
g2
I73948096
sg3
F654.0
sg4
F633.0
sg5
F646.0
sg6
g7
(S'\x07\xd9\n\x1d'
p2410
tp2411
Rp2412
sg11
F646.0
sg12
F633.0
sa(dp2413
g2
I51172600
sg3
F657.0
sg4
F638.0
sg5
F643.0
sg6
g7
(S'\x07\xd9\n\x1c'
p2414
tp2415
Rp2416
sg11
F643.0
sg12
F644.0
sa(dp2417
g2
I62916000
sg3
F660.0
sg4
F634.0
sg5
F641.0
sg6
g7
(S'\x07\xd9\n\x1b'
p2418
tp2419
Rp2420
sg11
F641.0
sg12
F651.0
sa(dp2421
g2
I41350900
sg3
F665.0
sg4
F644.0
sg5
F654.0
sg6
g7
(S'\x07\xd9\n\x1a'
p2422
tp2423
Rp2424
sg11
F654.0
sg12
F645.0
sa(dp2425
g2
I56361000
sg3
F675.0
sg4
F643.0
sg5
F648.0
sg6
g7
(S'\x07\xd9\n\x17'
p2426
tp2427
Rp2428
sg11
F648.0
sg12
F669.0
sa(dp2429
g2
I73084400
sg3
F670.0
sg4
F658.0
sg5
F664.0
sg6
g7
(S'\x07\xd9\n\x16'
p2430
tp2431
Rp2432
sg11
F664.0
sg12
F664.0
sa(dp2433
g2
I99687000
sg3
F691.0
sg4
F663.0
sg5
F684.0
sg6
g7
(S'\x07\xd9\n\x15'
p2434
tp2435
Rp2436
sg11
F684.0
sg12
F671.0
sa(dp2437
g2
I102422096
sg3
F678.0
sg4
F641.0
sg5
F678.0
sg6
g7
(S'\x07\xd9\n\x14'
p2438
tp2439
Rp2440
sg11
F678.0
sg12
F659.0
sa(dp2441
g2
I50408500
sg3
F653.0
sg4
F620.0
sg5
F650.0
sg6
g7
(S'\x07\xd9\n\x13'
p2442
tp2443
Rp2444
sg11
F650.0
sg12
F624.0
sa(dp2445
g2
I72288304
sg3
F648.0
sg4
F626.0
sg5
F633.0
sg6
g7
(S'\x07\xd9\n\x10'
p2446
tp2447
Rp2448
sg11
F633.0
sg12
F640.0
sa(dp2449
g2
I101143296
sg3
F673.0
sg4
F638.0
sg5
F640.0
sg6
g7
(S'\x07\xd9\n\x0f'
p2450
tp2451
Rp2452
sg11
F640.0
sg12
F661.0
sa(dp2453
g2
I227392896
sg3
F654.0
sg4
F626.0
sg5
F654.0
sg6
g7
(S'\x07\xd9\n\x0e'
p2454
tp2455
Rp2456
sg11
F654.0
sg12
F650.0
sa(dp2457
g2
I112689696
sg3
F668.0
sg4
F648.0
sg5
F658.0
sg6
g7
(S'\x07\xd9\n\r'
p2458
tp2459
Rp2460
sg11
F658.0
sg12
F663.0
sa(dp2461
g2
I113874800
sg3
F671.0
sg4
F635.0
sg5
F661.0
sg6
g7
(S'\x07\xd9\n\t'
p2462
tp2463
Rp2464
sg11
F661.0
sg12
F636.0
sa(dp2465
g2
I54310200
sg3
F635.0
sg4
F624.0
sg5
F632.0
sg6
g7
(S'\x07\xd9\n\x08'
p2466
tp2467
Rp2468
sg11
F632.0
sg12
F628.0
sa(dp2469
g2
I81794896
sg3
F637.0
sg4
F622.0
sg5
F630.0
sg6
g7
(S'\x07\xd9\n\x07'
p2470
tp2471
Rp2472
sg11
F630.0
sg12
F624.0
sa(dp2473
g2
I207604992
sg3
F634.0
sg4
F604.0
sg5
F618.0
sg6
g7
(S'\x07\xd9\n\x06'
p2474
tp2475
Rp2476
sg11
F618.0
sg12
F606.0
sa(dp2477
g2
I202881296
sg3
F594.0
sg4
F554.0
sg5
F592.0
sg6
g7
(S'\x07\xd9\n\x05'
p2478
tp2479
Rp2480
sg11
F592.0
sg12
F556.0
sa(dp2481
g2
I105410704
sg3
F542.0
sg4
F515.0
sg5
F534.0
sg6
g7
(S'\x07\xd9\n\x02'
p2482
tp2483
Rp2484
sg11
F534.0
sg12
F520.0
sa(dp2485
g2
I76959400
sg3
F554.0
sg4
F530.0
sg5
F533.0
sg6
g7
(S'\x07\xd9\n\x01'
p2486
tp2487
Rp2488
sg11
F533.0
sg12
F553.0
sa(dp2489
g2
I72721504
sg3
F578.0
sg4
F548.0
sg5
F553.0
sg6
g7
(S'\x07\xd9\t\x1e'
p2490
tp2491
Rp2492
sg11
F553.0
sg12
F574.0
sa(dp2493
g2
I108621400
sg3
F570.0
sg4
F548.0
sg5
F564.0
sg6
g7
(S'\x07\xd9\t\x1d'
p2494
tp2495
Rp2496
sg11
F564.0
sg12
F555.0
sa(dp2497
g2
I145009408
sg3
F540.0
sg4
F522.0
sg5
F540.0
sg6
g7
(S'\x07\xd9\t\x1c'
p2498
tp2499
Rp2500
sg11
F540.0
sg12
F533.0
sa(dp2501
g2
I8919500
sg3
F573.0
sg4
F573.0
sg5
F573.0
sg6
g7
(S'\x07\xd9\t\x19'
p2502
tp2503
Rp2504
sg11
F573.0
sg12
F573.0
sa(dp2505
g2
I44618300
sg3
F708.0
sg4
F674.0
sg5
F681.0
sg6
g7
(S'\x07\xd9\t\x18'
p2506
tp2507
Rp2508
sg11
F681.0
sg12
F702.0
sa(dp2509
g2
I65668700
sg3
F692.0
sg4
F664.0
sg5
F692.0
sg6
g7
(S'\x07\xd9\t\x12'
p2510
tp2511
Rp2512
sg11
F692.0
sg12
F690.0
sa(dp2513
g2
I41151500
sg3
F723.0
sg4
F688.0
sg5
F700.0
sg6
g7
(S'\x07\xd9\t\x11'
p2514
tp2515
Rp2516
sg11
F700.0
sg12
F719.0
sa(dp2517
g2
I28877400
sg3
F730.0
sg4
F712.0
sg5
F714.0
sg6
g7
(S'\x07\xd9\t\x10'
p2518
tp2519
Rp2520
sg11
F714.0
sg12
F725.0
sa(dp2521
g2
I23823200
sg3
F735.0
sg4
F714.0
sg5
F719.0
sg6
g7
(S'\x07\xd9\t\x0f'
p2522
tp2523
Rp2524
sg11
F719.0
sg12
F723.0
sa(dp2525
g2
I27554600
sg3
F742.0
sg4
F718.0
sg5
F720.0
sg6
g7
(S'\x07\xd9\t\x0e'
p2526
tp2527
Rp2528
sg11
F720.0
sg12
F740.0
sa(dp2529
g2
I30969400
sg3
F768.0
sg4
F741.0
sg5
F747.0
sg6
g7
(S'\x07\xd9\t\x0b'
p2530
tp2531
Rp2532
sg11
F747.0
sg12
F768.0
sa(dp2533
g2
I24627800
sg3
F768.0
sg4
F755.0
sg5
F762.0
sg6
g7
(S'\x07\xd9\t\n'
p2534
tp2535
Rp2536
sg11
F762.0
sg12
F758.0
sa(dp2537
g2
I32018700
sg3
F763.0
sg4
F744.0
sg5
F747.0
sg6
g7
(S'\x07\xd9\t\t'
p2538
tp2539
Rp2540
sg11
F747.0
sg12
F759.0
sa(dp2541
g2
I27740500
sg3
F769.0
sg4
F746.0
sg5
F769.0
sg6
g7
(S'\x07\xd9\t\x08'
p2542
tp2543
Rp2544
sg11
F769.0
sg12
F756.0
sa(dp2545
g2
I40732900
sg3
F770.0
sg4
F742.0
sg5
F756.0
sg6
g7
(S'\x07\xd9\t\x07'
p2546
tp2547
Rp2548
sg11
F756.0
sg12
F760.0
sa(dp2549
g2
I46788700
sg3
F779.0
sg4
F752.0
sg5
F755.0
sg6
g7
(S'\x07\xd9\t\x04'
p2550
tp2551
Rp2552
sg11
F755.0
sg12
F778.0
sa(dp2553
g2
I26756100
sg3
F803.0
sg4
F783.0
sg5
F784.0
sg6
g7
(S'\x07\xd9\t\x03'
p2554
tp2555
Rp2556
sg11
F784.0
sg12
F801.0
sa(dp2557
g2
I27707500
sg3
F810.0
sg4
F799.0
sg5
F806.0
sg6
g7
(S'\x07\xd9\t\x02'
p2558
tp2559
Rp2560
sg11
F806.0
sg12
F800.0
sa(dp2561
g2
I17110800
sg3
F826.0
sg4
F812.0
sg5
F820.0
sg6
g7
(S'\x07\xd9\t\x01'
p2562
tp2563
Rp2564
sg11
F820.0
sg12
F819.0
sa(dp2565
g2
I37195300
sg3
F850.0
sg4
F818.0
sg5
F823.0
sg6
g7
(S'\x07\xd9\x08\x1f'
p2566
tp2567
Rp2568
sg11
F823.0
sg12
F842.0
sa(dp2569
g2
I42432400
sg3
F835.0
sg4
F820.0
sg5
F835.0
sg6
g7
(S'\x07\xd9\x08\x1c'
p2570
tp2571
Rp2572
sg11
F835.0
sg12
F821.0
sa(dp2573
g2
I20616400
sg3
F821.0
sg4
F804.0
sg5
F813.0
sg6
g7
(S'\x07\xd9\x08\x1b'
p2574
tp2575
Rp2576
sg11
F813.0
sg12
F820.0
sa(dp2577
g2
I21873200
sg3
F827.0
sg4
F816.0
sg5
F824.0
sg6
g7
(S'\x07\xd9\x08\x1a'
p2578
tp2579
Rp2580
sg11
F824.0
sg12
F824.0
sa(dp2581
g2
I27655100
sg3
F826.0
sg4
F811.0
sg5
F821.0
sg6
g7
(S'\x07\xd9\x08\x19'
p2582
tp2583
Rp2584
sg11
F821.0
sg12
F813.0
sa(dp2585
g2
I21007600
sg3
F820.0
sg4
F808.0
sg5
F813.0
sg6
g7
(S'\x07\xd9\x08\x18'
p2586
tp2587
Rp2588
sg11
F813.0
sg12
F815.0
sa(dp2589
g2
I22442500
sg3
F815.0
sg4
F798.0
sg5
F805.0
sg6
g7
(S'\x07\xd9\x08\x15'
p2590
tp2591
Rp2592
sg11
F805.0
sg12
F814.0
sa(dp2593
g2
I22199900
sg3
F816.0
sg4
F804.0
sg5
F815.0
sg6
g7
(S'\x07\xd9\x08\x14'
p2594
tp2595
Rp2596
sg11
F815.0
sg12
F808.0
sa(dp2597
g2
I19813900
sg3
F824.0
sg4
F799.0
sg5
F799.0
sg6
g7
(S'\x07\xd9\x08\x13'
p2598
tp2599
Rp2600
sg11
F799.0
sg12
F814.0
sa(dp2601
g2
I24612400
sg3
F815.0
sg4
F798.0
sg5
F814.0
sg6
g7
(S'\x07\xd9\x08\x12'
p2602
tp2603
Rp2604
sg11
F814.0
sg12
F798.0
sa(dp2605
g2
I31229600
sg3
F829.0
sg4
F815.0
sg5
F818.0
sg6
g7
(S'\x07\xd9\x08\x11'
p2606
tp2607
Rp2608
sg11
F818.0
sg12
F827.0
sa(dp2609
g2
I24606700
sg3
F842.0
sg4
F833.0
sg5
F837.0
sg6
g7
(S'\x07\xd9\x08\x0e'
p2610
tp2611
Rp2612
sg11
F837.0
sg12
F836.0
sa(dp2613
g2
I18674400
sg3
F835.0
sg4
F826.0
sg5
F828.0
sg6
g7
(S'\x07\xd9\x08\r'
p2614
tp2615
Rp2616
sg11
F828.0
sg12
F830.0
sa(dp2617
g2
I21163300
sg3
F824.0
sg4
F813.0
sg5
F819.0
sg6
g7
(S'\x07\xd9\x08\x0c'
p2618
tp2619
Rp2620
sg11
F819.0
sg12
F814.0
sa(dp2621
g2
I37163700
sg3
F836.0
sg4
F808.0
sg5
F832.0
sg6
g7
(S'\x07\xd9\x08\x0b'
p2622
tp2623
Rp2624
sg11
F832.0
sg12
F811.0
sa(dp2625
g2
I23947600
sg3
F813.0
sg4
F802.0
sg5
F808.0
sg6
g7
(S'\x07\xd9\x08\n'
p2626
tp2627
Rp2628
sg11
F808.0
sg12
F810.0
sa(dp2629
g2
I24903700
sg3
F786.0
sg4
F770.0
sg5
F786.0
sg6
g7
(S'\x07\xd9\x08\x07'
p2630
tp2631
Rp2632
sg11
F786.0
sg12
F782.0
sa(dp2633
g2
I41193500
sg3
F792.0
sg4
F770.0
sg5
F777.0
sg6
g7
(S'\x07\xd9\x08\x06'
p2634
tp2635
Rp2636
sg11
F777.0
sg12
F783.0
sa(dp2637
g2
I32829200
sg3
F822.0
sg4
F783.0
sg5
F784.0
sg6
g7
(S'\x07\xd9\x08\x05'
p2638
tp2639
Rp2640
sg11
F784.0
sg12
F815.0
sa(dp2641
g2
I29658500
sg3
F846.0
sg4
F801.0
sg5
F814.0
sg6
g7
(S'\x07\xd9\x08\x04'
p2642
tp2643
Rp2644
sg11
F814.0
sg12
F842.0
sa(dp2645
g2
I19444300
sg3
F838.0
sg4
F824.0
sg5
F832.0
sg6
g7
(S'\x07\xd9\x08\x03'
p2646
tp2647
Rp2648
sg11
F832.0
sg12
F829.0
sa(dp2649
g2
I24368400
sg3
F831.0
sg4
F819.0
sg5
F829.0
sg6
g7
(S'\x07\xd9\x07\x1f'
p2650
tp2651
Rp2652
sg11
F829.0
sg12
F830.0
sa(dp2653
g2
I42333500
sg3
F838.0
sg4
F804.0
sg5
F818.0
sg6
g7
(S'\x07\xd9\x07\x1e'
p2654
tp2655
Rp2656
sg11
F818.0
sg12
F833.0
sa(dp2657
g2
I23729600
sg3
F809.0
sg4
F796.0
sg5
F809.0
sg6
g7
(S'\x07\xd9\x07\x1d'
p2658
tp2659
Rp2660
sg11
F809.0
sg12
F803.0
sa(dp2661
g2
I18022200
sg3
F820.0
sg4
F804.0
sg5
F815.0
sg6
g7
(S'\x07\xd9\x07\x1c'
p2662
tp2663
Rp2664
sg11
F815.0
sg12
F820.0
sa(dp2665
g2
I30872300
sg3
F827.0
sg4
F808.0
sg5
F820.0
sg6
g7
(S'\x07\xd9\x07\x1b'
p2666
tp2667
Rp2668
sg11
F820.0
sg12
F810.0
sa(dp2669
g2
I24491000
sg3
F799.0
sg4
F791.0
sg5
F795.0
sg6
g7
(S'\x07\xd9\x07\x18'
p2670
tp2671
Rp2672
sg11
F795.0
sg12
F796.0
sa(dp2673
g2
I25106400
sg3
F794.0
sg4
F774.0
sg5
F781.0
sg6
g7
(S'\x07\xd9\x07\x17'
p2674
tp2675
Rp2676
sg11
F781.0
sg12
F775.0
sa(dp2677
g2
I33650200
sg3
F784.0
sg4
F759.0
sg5
F780.0
sg6
g7
(S'\x07\xd9\x07\x16'
p2678
tp2679
Rp2680
sg11
F780.0
sg12
F763.0
sa(dp2681
g2
I27132000
sg3
F770.0
sg4
F753.0
sg5
F770.0
sg6
g7
(S'\x07\xd9\x07\x15'
p2682
tp2683
Rp2684
sg11
F770.0
sg12
F763.0
sa(dp2685
g2
I28414300
sg3
F738.0
sg4
F720.0
sg5
F734.0
sg6
g7
(S'\x07\xd9\x07\x11'
p2686
tp2687
Rp2688
sg11
F734.0
sg12
F723.0
sa(dp2689
g2
I35268500
sg3
F743.0
sg4
F710.0
sg5
F714.0
sg6
g7
(S'\x07\xd9\x07\x10'
p2690
tp2691
Rp2692
sg11
F714.0
sg12
F737.0
sa(dp2693
g2
I27681100
sg3
F727.0
sg4
F696.0
sg5
F707.0
sg6
g7
(S'\x07\xd9\x07\x0f'
p2694
tp2695
Rp2696
sg11
F707.0
sg12
F726.0
sa(dp2697
g2
I38520100
sg3
F720.0
sg4
F703.0
sg5
F714.0
sg6
g7
(S'\x07\xd9\x07\x0e'
p2698
tp2699
Rp2700
sg11
F714.0
sg12
F708.0
sa(dp2701
g2
I42265900
sg3
F717.0
sg4
F668.0
sg5
F668.0
sg6
g7
(S'\x07\xd9\x07\r'
p2702
tp2703
Rp2704
sg11
F668.0
sg12
F692.0
sa(dp2705
g2
I24590000
sg3
F730.0
sg4
F705.0
sg5
F710.0
sg6
g7
(S'\x07\xd9\x07\n'
p2706
tp2707
Rp2708
sg11
F710.0
sg12
F727.0
sa(dp2709
g2
I38730500
sg3
F745.0
sg4
F713.0
sg5
F717.0
sg6
g7
(S'\x07\xd9\x07\t'
p2710
tp2711
Rp2712
sg11
F717.0
sg12
F731.0
sa(dp2713
g2
I31572200
sg3
F779.0
sg4
F751.0
sg5
F751.0
sg6
g7
(S'\x07\xd9\x07\x08'
p2714
tp2715
Rp2716
sg11
F751.0
sg12
F777.0
sa(dp2717
g2
I30307700
sg3
F828.0
sg4
F790.0
sg5
F793.0
sg6
g7
(S'\x07\xd9\x07\x07'
p2718
tp2719
Rp2720
sg11
F793.0
sg12
F824.0
sa(dp2721
g2
I17604200
sg3
F829.0
sg4
F815.0
sg5
F822.0
sg6
g7
(S'\x07\xd9\x07\x06'
p2722
tp2723
Rp2724
sg11
F822.0
sg12
F819.0
sa(dp2725
g2
I25058000
sg3
F825.0
sg4
F795.0
sg5
F823.0
sg6
g7
(S'\x07\xd9\x07\x03'
p2726
tp2727
Rp2728
sg11
F823.0
sg12
F798.0
sa(dp2729
g2
I19276700
sg3
F826.0
sg4
F814.0
sg5
F818.0
sg6
g7
(S'\x07\xd9\x07\x02'
p2730
tp2731
Rp2732
sg11
F818.0
sg12
F820.0
sa(dp2733
g2
I20738500
sg3
F828.0
sg4
F804.0
sg5
F810.0
sg6
g7
(S'\x07\xd9\x07\x01'
p2734
tp2735
Rp2736
sg11
F810.0
sg12
F806.0
sa(dp2737
g2
I21871600
sg3
F822.0
sg4
F809.0
sg5
F814.0
sg6
g7
(S'\x07\xd9\x06\x1e'
p2738
tp2739
Rp2740
sg11
F814.0
sg12
F816.0
sa(dp2741
g2
I31789700
sg3
F829.0
sg4
F793.0
sg5
F796.0
sg6
g7
(S'\x07\xd9\x06\x1d'
p2742
tp2743
Rp2744
sg11
F796.0
sg12
F826.0
sa(dp2745
g2
I36617400
sg3
F835.0
sg4
F817.0
sg5
F831.0
sg6
g7
(S'\x07\xd9\x06\x1a'
p2746
tp2747
Rp2748
sg11
F831.0
sg12
F830.0
sa(dp2749
g2
I39000000
sg3
F817.0
sg4
F772.0
sg5
F811.0
sg6
g7
(S'\x07\xd9\x06\x19'
p2750
tp2751
Rp2752
sg11
F811.0
sg12
F780.0
sa(dp2753
g2
I26618800
sg3
F792.0
sg4
F767.0
sg5
F775.0
sg6
g7
(S'\x07\xd9\x06\x18'
p2754
tp2755
Rp2756
sg11
F775.0
sg12
F788.0
sa(dp2757
g2
I44395700
sg3
F785.0
sg4
F772.0
sg5
F778.0
sg6
g7
(S'\x07\xd9\x06\x17'
p2758
tp2759
Rp2760
sg11
F778.0
sg12
F782.0
sa(dp2761
g2
I22792300
sg3
F828.0
sg4
F809.0
sg5
F822.0
sg6
g7
(S'\x07\xd9\x06\x16'
p2762
tp2763
Rp2764
sg11
F822.0
sg12
F814.0
sa(dp2765
g2
I36747600
sg3
F827.0
sg4
F800.0
sg5
F808.0
sg6
g7
(S'\x07\xd9\x06\x13'
p2766
tp2767
Rp2768
sg11
F808.0
sg12
F807.0
sa(dp2769
g2
I40178900
sg3
F808.0
sg4
F785.0
sg5
F792.0
sg6
g7
(S'\x07\xd9\x06\x12'
p2770
tp2771
Rp2772
sg11
F792.0
sg12
F804.0
sa(dp2773
g2
I63352900
sg3
F837.0
sg4
F796.0
sg5
F821.0
sg6
g7
(S'\x07\xd9\x06\x11'
p2774
tp2775
Rp2776
sg11
F821.0
sg12
F808.0
sa(dp2777
g2
I94792000
sg3
F866.0
sg4
F806.0
sg5
F817.0
sg6
g7
(S'\x07\xd9\x06\x10'
p2778
tp2779
Rp2780
sg11
F817.0
sg12
F858.0
sa(dp2781
g2
I59377800
sg3
F934.0
sg4
F893.0
sg5
F896.0
sg6
g7
(S'\x07\xd9\x06\x0f'
p2782
tp2783
Rp2784
sg11
F896.0
sg12
F925.0
sa(dp2785
g2
I71848300
sg3
F923.0
sg4
F895.0
sg5
F917.0
sg6
g7
(S'\x07\xd9\x06\x0c'
p2786
tp2787
Rp2788
sg11
F917.0
sg12
F897.0
sa(dp2789
g2
I47214500
sg3
F873.0
sg4
F843.0
sg5
F872.0
sg6
g7
(S'\x07\xd9\x06\x0b'
p2790
tp2791
Rp2792
sg11
F872.0
sg12
F854.0
sa(dp2793
g2
I64565900
sg3
F854.0
sg4
F805.0
sg5
F848.0
sg6
g7
(S'\x07\xd9\x06\n'
p2794
tp2795
Rp2796
sg11
F848.0
sg12
F812.0
sa(dp2797
g2
I62998800
sg3
F823.0
sg4
F793.0
sg5
F794.0
sg6
g7
(S'\x07\xd9\x06\t'
p2798
tp2799
Rp2800
sg11
F794.0
sg12
F805.0
sa(dp2801
g2
I54123400
sg3
F804.0
sg4
F776.0
sg5
F800.0
sg6
g7
(S'\x07\xd9\x06\x08'
p2802
tp2803
Rp2804
sg11
F800.0
sg12
F778.0
sa(dp2805
g2
I40557000
sg3
F791.0
sg4
F755.0
sg5
F763.0
sg6
g7
(S'\x07\xd9\x06\x05'
p2806
tp2807
Rp2808
sg11
F763.0
sg12
F781.0
sa(dp2809
g2
I40790000
sg3
F776.0
sg4
F733.0
sg5
F765.0
sg6
g7
(S'\x07\xd9\x06\x04'
p2810
tp2811
Rp2812
sg11
F765.0
sg12
F736.0
sa(dp2813
g2
I14095100
sg3
F747.0
sg4
F733.0
sg5
F739.0
sg6
g7
(S'\x07\xd9\x06\x03'
p2814
tp2815
Rp2816
sg11
F739.0
sg12
F739.0
sa(dp2817
g2
I41369300
sg3
F761.0
sg4
F737.0
sg5
F737.0
sg6
g7
(S'\x07\xd9\x06\x02'
p2818
tp2819
Rp2820
sg11
F737.0
sg12
F760.0
sa(dp2821
g2
I38153600
sg3
F744.0
sg4
F712.0
sg5
F742.0
sg6
g7
(S'\x07\xd9\x06\x01'
p2822
tp2823
Rp2824
sg11
F742.0
sg12
F714.0
sa(dp2825
g2
I30755500
sg3
F720.0
sg4
F706.0
sg5
F716.0
sg6
g7
(S'\x07\xd9\x05\x1d'
p2826
tp2827
Rp2828
sg11
F716.0
sg12
F720.0
sa(dp2829
g2
I34158800
sg3
F722.0
sg4
F705.0
sg5
F710.0
sg6
g7
(S'\x07\xd9\x05\x1c'
p2830
tp2831
Rp2832
sg11
F710.0
sg12
F713.0
sa(dp2833
g2
I51821400
sg3
F720.0
sg4
F702.0
sg5
F719.0
sg6
g7
(S'\x07\xd9\x05\x1b'
p2834
tp2835
Rp2836
sg11
F719.0
sg12
F705.0
sa(dp2837
g2
I33426400
sg3
F708.0
sg4
F687.0
sg5
F687.0
sg6
g7
(S'\x07\xd9\x05\x1a'
p2838
tp2839
Rp2840
sg11
F687.0
sg12
F699.0
sa(dp2841
g2
I27175800
sg3
F697.0
sg4
F676.0
sg5
F689.0
sg6
g7
(S'\x07\xd9\x05\x19'
p2842
tp2843
Rp2844
sg11
F689.0
sg12
F676.0
sa(dp2845
g2
I27780900
sg3
F686.0
sg4
F654.0
sg5
F685.0
sg6
g7
(S'\x07\xd9\x05\x16'
p2846
tp2847
Rp2848
sg11
F685.0
sg12
F655.0
sa(dp2849
g2
I16211100
sg3
F675.0
sg4
F663.0
sg5
F673.0
sg6
g7
(S'\x07\xd9\x05\x15'
p2850
tp2851
Rp2852
sg11
F673.0
sg12
F675.0
sa(dp2853
g2
I18168200
sg3
F679.0
sg4
F666.0
sg5
F677.0
sg6
g7
(S'\x07\xd9\x05\x14'
p2854
tp2855
Rp2856
sg11
F677.0
sg12
F676.0
sa(dp2857
g2
I30304600
sg3
F683.0
sg4
F667.0
sg5
F669.0
sg6
g7
(S'\x07\xd9\x05\x13'
p2858
tp2859
Rp2860
sg11
F669.0
sg12
F680.0
sa(dp2861
g2
I32396000
sg3
F664.0
sg4
F645.0
sg5
F645.0
sg6
g7
(S'\x07\xd9\x05\x12'
p2862
tp2863
Rp2864
sg11
F645.0
sg12
F663.0
sa(dp2865
g2
I33822900
sg3
F685.0
sg4
F656.0
sg5
F679.0
sg6
g7
(S'\x07\xd9\x05\x0f'
p2866
tp2867
Rp2868
sg11
F679.0
sg12
F657.0
sa(dp2869
g2
I30210700
sg3
F655.0
sg4
F645.0
sg5
F645.0
sg6
g7
(S'\x07\xd9\x05\x0e'
p2870
tp2871
Rp2872
sg11
F645.0
sg12
F648.0
sa(dp2873
g2
I25675100
sg3
F691.0
sg4
F670.0
sg5
F678.0
sg6
g7
(S'\x07\xd9\x05\r'
p2874
tp2875
Rp2876
sg11
F678.0
sg12
F679.0
sa(dp2877
g2
I34059500
sg3
F695.0
sg4
F676.0
sg5
F677.0
sg6
g7
(S'\x07\xd9\x05\x0c'
p2878
tp2879
Rp2880
sg11
F677.0
sg12
F693.0
sa(dp2881
g2
I75492700
sg3
F734.0
sg4
F704.0
sg5
F713.0
sg6
g7
(S'\x07\xd9\x05\x0b'
p2882
tp2883
Rp2884
sg11
F713.0
sg12
F709.0
sa(dp2885
g2
I63324600
sg3
F696.0
sg4
F642.0
sg5
F695.0
sg6
g7
(S'\x07\xd9\x05\x08'
p2886
tp2887
Rp2888
sg11
F695.0
sg12
F650.0
sa(dp2889
g2
I44596400
sg3
F652.0
sg4
F641.0
sg5
F652.0
sg6
g7
(S'\x07\xd9\x05\x07'
p2890
tp2891
Rp2892
sg11
F652.0
sg12
F652.0
sa(dp2893
g2
I20970800
sg3
F605.0
sg4
F589.0
sg5
F602.0
sg6
g7
(S'\x07\xd9\x05\x01'
p2894
tp2895
Rp2896
sg11
F602.0
sg12
F599.0
sa(dp2897
g2
I32459200
sg3
F601.0
sg4
F587.0
sg5
F589.0
sg6
g7
(S'\x07\xd9\x04\x1e'
p2898
tp2899
Rp2900
sg11
F589.0
sg12
F599.0
sa(dp2901
g2
I37685500
sg3
F603.0
sg4
F578.0
sg5
F580.0
sg6
g7
(S'\x07\xd9\x04\x1c'
p2902
tp2903
Rp2904
sg11
F580.0
sg12
F593.0
sa(dp2905
g2
I33482900
sg3
F622.0
sg4
F602.0
sg5
F609.0
sg6
g7
(S'\x07\xd9\x04\x1b'
p2906
tp2907
Rp2908
sg11
F609.0
sg12
F610.0
sa(dp2909
g2
I35232500
sg3
F619.0
sg4
F595.0
sg5
F605.0
sg6
g7
(S'\x07\xd9\x04\x18'
p2910
tp2911
Rp2912
sg11
F605.0
sg12
F608.0
sa(dp2913
g2
I44818000
sg3
F599.0
sg4
F570.0
sg5
F598.0
sg6
g7
(S'\x07\xd9\x04\x17'
p2914
tp2915
Rp2916
sg11
F598.0
sg12
F588.0
sa(dp2917
g2
I27122100
sg3
F605.0
sg4
F591.0
sg5
F598.0
sg6
g7
(S'\x07\xd9\x04\x16'
p2918
tp2919
Rp2920
sg11
F598.0
sg12
F598.0
sa(dp2921
g2
I29695300
sg3
F583.0
sg4
F568.0
sg5
F578.0
sg6
g7
(S'\x07\xd9\x04\x15'
p2922
tp2923
Rp2924
sg11
F578.0
sg12
F570.0
sa(dp2925
g2
I24501700
sg3
F614.0
sg4
F587.0
sg5
F600.0
sg6
g7
(S'\x07\xd9\x04\x14'
p2926
tp2927
Rp2928
sg11
F600.0
sg12
F613.0
sa(dp2929
g2
I36435100
sg3
F611.0
sg4
F583.0
sg5
F607.0
sg6
g7
(S'\x07\xd9\x04\x11'
p2930
tp2931
Rp2932
sg11
F607.0
sg12
F600.0
sa(dp2933
g2
I40976300
sg3
F621.0
sg4
F580.0
sg5
F582.0
sg6
g7
(S'\x07\xd9\x04\x10'
p2934
tp2935
Rp2936
sg11
F582.0
sg12
F614.0
sa(dp2937
g2
I53626000
sg3
F619.0
sg4
F590.0
sg5
F597.0
sg6
g7
(S'\x07\xd9\x04\x0f'
p2938
tp2939
Rp2940
sg11
F597.0
sg12
F617.0
sa(dp2941
g2
I38240400
sg3
F649.0
sg4
F624.0
sg5
F647.0
sg6
g7
(S'\x07\xd9\x04\x0e'
p2942
tp2943
Rp2944
sg11
F647.0
sg12
F645.0
sa(dp2945
g2
I28366200
sg3
F639.0
sg4
F609.0
sg5
F625.0
sg6
g7
(S'\x07\xd9\x04\r'
p2946
tp2947
Rp2948
sg11
F625.0
sg12
F620.0
sa(dp2949
g2
I46294200
sg3
F646.0
sg4
F619.0
sg5
F634.0
sg6
g7
(S'\x07\xd9\x04\n'
p2950
tp2951
Rp2952
sg11
F634.0
sg12
F645.0
sa(dp2953
g2
I38148100
sg3
F618.0
sg4
F580.0
sg5
F616.0
sg6
g7
(S'\x07\xd9\x04\t'
p2954
tp2955
Rp2956
sg11
F616.0
sg12
F580.0
sa(dp2957
g2
I26870000
sg3
F579.0
sg4
F562.0
sg5
F573.0
sg6
g7
(S'\x07\xd9\x04\x08'
p2958
tp2959
Rp2960
sg11
F573.0
sg12
F565.0
sa(dp2961
g2
I27756100
sg3
F588.0
sg4
F573.0
sg5
F581.0
sg6
g7
(S'\x07\xd9\x04\x07'
p2962
tp2963
Rp2964
sg11
F581.0
sg12
F579.0
sa(dp2965
g2
I35689400
sg3
F607.0
sg4
F578.0
sg5
F585.0
sg6
g7
(S'\x07\xd9\x04\x06'
p2966
tp2967
Rp2968
sg11
F585.0
sg12
F602.0
sa(dp2969
g2
I58256300
sg3
F606.0
sg4
F581.0
sg5
F590.0
sg6
g7
(S'\x07\xd9\x04\x03'
p2970
tp2971
Rp2972
sg11
F590.0
sg12
F598.0
sa(dp2973
g2
I46970400
sg3
F563.0
sg4
F535.0
sg5
F563.0
sg6
g7
(S'\x07\xd9\x04\x02'
p2974
tp2975
Rp2976
sg11
F563.0
sg12
F543.0
sa(dp2977
g2
I40106500
sg3
F522.0
sg4
F498.0
sg5
F511.0
sg6
g7
(S'\x07\xd9\x04\x01'
p2978
tp2979
Rp2980
sg11
F511.0
sg12
F505.0
sa(dp2981
g2
I55331500
sg3
F527.0
sg4
F492.0
sg5
F495.0
sg6
g7
(S'\x07\xd9\x03\x1f'
p2982
tp2983
Rp2984
sg11
F495.0
sg12
F515.0
sa(dp2985
g2
I44194600
sg3
F554.0
sg4
F524.0
sg5
F524.0
sg6
g7
(S'\x07\xd9\x03\x1e'
p2986
tp2987
Rp2988
sg11
F524.0
sg12
F550.0
sa(dp2989
g2
I35866700
sg3
F574.0
sg4
F551.0
sg5
F551.0
sg6
g7
(S'\x07\xd9\x03\x1b'
p2990
tp2991
Rp2992
sg11
F551.0
sg12
F565.0
sa(dp2993
g2
I42466700
sg3
F562.0
sg4
F541.0
sg5
F557.0
sg6
g7
(S'\x07\xd9\x03\x1a'
p2994
tp2995
Rp2996
sg11
F557.0
sg12
F550.0
sa(dp2997
g2
I41011200
sg3
F555.0
sg4
F530.0
sg5
F537.0
sg6
g7
(S'\x07\xd9\x03\x19'
p2998
tp2999
Rp3000
sg11
F537.0
sg12
F555.0
sa(dp3001
g2
I64658600
sg3
F563.0
sg4
F546.0
sg5
F555.0
sg6
g7
(S'\x07\xd9\x03\x18'
p3002
tp3003
Rp3004
sg11
F555.0
sg12
F557.0
sa(dp3005
g2
I62928700
sg3
F543.0
sg4
F502.0
sg5
F543.0
sg6
g7
(S'\x07\xd9\x03\x17'
p3006
tp3007
Rp3008
sg11
F543.0
sg12
F508.0
sa(dp3009
g2
I45447700
sg3
F516.0
sg4
F498.0
sg5
F500.0
sg6
g7
(S'\x07\xd9\x03\x13'
p3010
tp3011
Rp3012
sg11
F500.0
sg12
F515.0
sa(dp3013
g2
I72225100
sg3
F521.0
sg4
F495.0
sg5
F514.0
sg6
g7
(S'\x07\xd9\x03\x12'
p3014
tp3015
Rp3016
sg11
F514.0
sg12
F519.0
sa(dp3017
g2
I78104300
sg3
F511.0
sg4
F478.0
sg5
F507.0
sg6
g7
(S'\x07\xd9\x03\x11'
p3018
tp3019
Rp3020
sg11
F507.0
sg12
F486.0
sa(dp3021
g2
I61979300
sg3
F487.0
sg4
F466.0
sg5
F481.0
sg6
g7
(S'\x07\xd9\x03\x10'
p3022
tp3023
Rp3024
sg11
F481.0
sg12
F474.0
sa(dp3025
g2
I75242100
sg3
F471.0
sg4
F464.0
sg5
F469.0
sg6
g7
(S'\x07\xd9\x03\r'
p3026
tp3027
Rp3028
sg11
F469.0
sg12
F466.0
sa(dp3029
g2
I136220200
sg3
F456.0
sg4
F441.0
sg5
F449.0
sg6
g7
(S'\x07\xd9\x03\x0c'
p3030
tp3031
Rp3032
sg11
F449.0
sg12
F453.0
sa(dp3033
g2
I139263500
sg3
F458.0
sg4
F427.0
sg5
F458.0
sg6
g7
(S'\x07\xd9\x03\x0b'
p3034
tp3035
Rp3036
sg11
F458.0
sg12
F430.0
sa(dp3037
g2
I47016900
sg3
F417.0
sg4
F403.0
sg5
F416.0
sg6
g7
(S'\x07\xd9\x03\n'
p3038
tp3039
Rp3040
sg11
F416.0
sg12
F415.0
sa(dp3041
g2
I56435200
sg3
F424.0
sg4
F412.0
sg5
F414.0
sg6
g7
(S'\x07\xd9\x03\t'
p3042
tp3043
Rp3044
sg11
F414.0
sg12
F417.0
sa(dp3045
g2
I117665600
sg3
F420.0
sg4
F415.0
sg5
F417.0
sg6
g7
(S'\x07\xd9\x03\x06'
p3046
tp3047
Rp3048
sg11
F417.0
sg12
F419.0
sa(dp3049
g2
I88786900
sg3
F445.0
sg4
F425.0
sg5
F426.0
sg6
g7
(S'\x07\xd9\x03\x05'
p3050
tp3051
Rp3052
sg11
F426.0
sg12
F435.0
sa(dp3053
g2
I104506600
sg3
F452.0
sg4
F428.0
sg5
F430.0
sg6
g7
(S'\x07\xd9\x03\x04'
p3054
tp3055
Rp3056
sg11
F430.0
sg12
F452.0
sa(dp3057
g2
I78328800
sg3
F454.0
sg4
F418.0
sg5
F451.0
sg6
g7
(S'\x07\xd9\x03\x03'
p3058
tp3059
Rp3060
sg11
F451.0
sg12
F424.0
sa(dp3061
g2
I54709000
sg3
F436.0
sg4
F409.0
sg5
F434.0
sg6
g7
(S'\x07\xd9\x03\x02'
p3062
tp3063
Rp3064
sg11
F434.0
sg12
F411.0
sa(dp3065
g2
I31431000
sg3
F416.0
sg4
F406.0
sg5
F414.0
sg6
g7
(S'\x07\xd9\x02\x1b'
p3066
tp3067
Rp3068
sg11
F414.0
sg12
F413.0
sa(dp3069
g2
I42304800
sg3
F426.0
sg4
F411.0
sg5
F415.0
sg6
g7
(S'\x07\xd9\x02\x1a'
p3070
tp3071
Rp3072
sg11
F415.0
sg12
F420.0
sa(dp3073
g2
I79512300
sg3
F432.0
sg4
F408.0
sg5
F415.0
sg6
g7
(S'\x07\xd9\x02\x19'
p3074
tp3075
Rp3076
sg11
F415.0
sg12
F428.0
sa(dp3077
g2
I68986600
sg3
F438.0
sg4
F420.0
sg5
F420.0
sg6
g7
(S'\x07\xd9\x02\x18'
p3078
tp3079
Rp3080
sg11
F420.0
sg12
F438.0
sa(dp3081
g2
I46612000
sg3
F469.0
sg4
F434.0
sg5
F463.0
sg6
g7
(S'\x07\xd9\x02\x17'
p3082
tp3083
Rp3084
sg11
F463.0
sg12
F449.0
sa(dp3085
g2
I41817400
sg3
F454.0
sg4
F437.0
sg5
F449.0
sg6
g7
(S'\x07\xd9\x02\x14'
p3086
tp3087
Rp3088
sg11
F449.0
sg12
F440.0
sa(dp3089
g2
I39627200
sg3
F443.0
sg4
F429.0
sg5
F438.0
sg6
g7
(S'\x07\xd9\x02\x13'
p3090
tp3091
Rp3092
sg11
F438.0
sg12
F433.0
sa(dp3093
g2
I35055500
sg3
F445.0
sg4
F426.0
sg5
F427.0
sg6
g7
(S'\x07\xd9\x02\x12'
p3094
tp3095
Rp3096
sg11
F427.0
sg12
F441.0
sa(dp3097
g2
I28281500
sg3
F470.0
sg4
F451.0
sg5
F454.0
sg6
g7
(S'\x07\xd9\x02\x11'
p3098
tp3099
Rp3100
sg11
F454.0
sg12
F467.0
sa(dp3101
g2
I22942700
sg3
F484.0
sg4
F464.0
sg5
F470.0
sg6
g7
(S'\x07\xd9\x02\x10'
p3102
tp3103
Rp3104
sg11
F470.0
sg12
F472.0
sa(dp3105
g2
I33115800
sg3
F488.0
sg4
F465.0
sg5
F474.0
sg6
g7
(S'\x07\xd9\x02\r'
p3106
tp3107
Rp3108
sg11
F474.0
sg12
F475.0
sa(dp3109
g2
I53763200
sg3
F496.0
sg4
F465.0
sg5
F479.0
sg6
g7
(S'\x07\xd9\x02\x0c'
p3110
tp3111
Rp3112
sg11
F479.0
sg12
F495.0
sa(dp3113
g2
I38198800
sg3
F512.0
sg4
F494.0
sg5
F509.0
sg6
g7
(S'\x07\xd9\x02\n'
p3114
tp3115
Rp3116
sg11
F509.0
sg12
F510.0
sa(dp3117
g2
I84410900
sg3
F542.0
sg4
F480.0
sg5
F490.0
sg6
g7
(S'\x07\xd9\x02\t'
p3118
tp3119
Rp3120
sg11
F490.0
sg12
F542.0
sa(dp3121
g2
I13892100
sg3
F591.0
sg4
F570.0
sg5
F572.0
sg6
g7
(S'\x07\xd9\x02\x06'
p3122
tp3123
Rp3124
sg11
F572.0
sg12
F590.0
sa(dp3125
g2
I20464300
sg3
F592.0
sg4
F566.0
sg5
F573.0
sg6
g7
(S'\x07\xd9\x02\x05'
p3126
tp3127
Rp3128
sg11
F573.0
sg12
F570.0
sa(dp3129
g2
I15438800
sg3
F574.0
sg4
F563.0
sg5
F567.0
sg6
g7
(S'\x07\xd9\x02\x04'
p3130
tp3131
Rp3132
sg11
F567.0
sg12
F568.0
sa(dp3133
g2
I21359000
sg3
F592.0
sg4
F557.0
sg5
F561.0
sg6
g7
(S'\x07\xd9\x02\x03'
p3134
tp3135
Rp3136
sg11
F561.0
sg12
F570.0
sa(dp3137
g2
I20746600
sg3
F589.0
sg4
F565.0
sg5
F569.0
sg6
g7
(S'\x07\xd9\x02\x02'
p3138
tp3139
Rp3140
sg11
F569.0
sg12
F589.0
sa(dp3141
g2
I26719300
sg3
F606.0
sg4
F591.0
sg5
F593.0
sg6
g7
(S'\x07\xd9\x01\x1e'
p3142
tp3143
Rp3144
sg11
F593.0
sg12
F605.0
sa(dp3145
g2
I28790300
sg3
F656.0
sg4
F615.0
sg5
F619.0
sg6
g7
(S'\x07\xd9\x01\x1d'
p3146
tp3147
Rp3148
sg11
F619.0
sg12
F650.0
sa(dp3149
g2
I36823000
sg3
F644.0
sg4
F613.0
sg5
F625.0
sg6
g7
(S'\x07\xd9\x01\x1c'
p3150
tp3151
Rp3152
sg11
F625.0
sg12
F616.0
sa(dp3153
g2
I23537000
sg3
F639.0
sg4
F611.0
sg5
F639.0
sg6
g7
(S'\x07\xd9\x01\x1b'
p3154
tp3155
Rp3156
sg11
F639.0
sg12
F621.0
sa(dp3157
g2
I23308100
sg3
F634.0
sg4
F605.0
sg5
F609.0
sg6
g7
(S'\x07\xd9\x01\x1a'
p3158
tp3159
Rp3160
sg11
F609.0
sg12
F611.0
sa(dp3161
g2
I17034000
sg3
F628.0
sg4
F606.0
sg5
F606.0
sg6
g7
(S'\x07\xd9\x01\x17'
p3162
tp3163
Rp3164
sg11
F606.0
sg12
F625.0
sa(dp3165
g2
I25190500
sg3
F650.0
sg4
F625.0
sg5
F642.0
sg6
g7
(S'\x07\xd9\x01\x16'
p3166
tp3167
Rp3168
sg11
F642.0
sg12
F633.0
sa(dp3169
g2
I21511900
sg3
F631.0
sg4
F605.0
sg5
F613.0
sg6
g7
(S'\x07\xd9\x01\x15'
p3170
tp3171
Rp3172
sg11
F613.0
sg12
F616.0
sa(dp3173
g2
I14003900
sg3
F657.0
sg4
F623.0
sg5
F633.0
sg6
g7
(S'\x07\xd9\x01\x14'
p3174
tp3175
Rp3176
sg11
F633.0
sg12
F651.0
sa(dp3177
g2
I8050400
sg3
F676.0
sg4
F652.0
sg5
F653.0
sg6
g7
(S'\x07\xd9\x01\x13'
p3178
tp3179
Rp3180
sg11
F653.0
sg12
F666.0
sa(dp3181
g2
I12582800
sg3
F663.0
sg4
F650.0
sg5
F656.0
sg6
g7
(S'\x07\xd9\x01\x10'
p3182
tp3183
Rp3184
sg11
F656.0
sg12
F662.0
sa(dp3185
g2
I14874200
sg3
F656.0
sg4
F648.0
sg5
F652.0
sg6
g7
(S'\x07\xd9\x01\x0f'
p3186
tp3187
Rp3188
sg11
F652.0
sg12
F650.0
sa(dp3189
g2
I12937600
sg3
F695.0
sg4
F666.0
sg5
F679.0
sg6
g7
(S'\x07\xd9\x01\x0e'
p3190
tp3191
Rp3192
sg11
F679.0
sg12
F666.0
sa(dp3193
g2
I16483600
sg3
F688.0
sg4
F661.0
sg5
F662.0
sg6
g7
(S'\x07\xd9\x01\r'
p3194
tp3195
Rp3196
sg11
F662.0
sg12
F688.0
sa(dp3197
g2
I13056500
sg3
F735.0
sg4
F716.0
sg5
F728.0
sg6
g7
(S'\x07\xd9\x01\t'
p3198
tp3199
Rp3200
sg11
F728.0
sg12
F728.0
sa(dp3201
g2
I15031000
sg3
F732.0
sg4
F707.0
sg5
F712.0
sg6
g7
(S'\x07\xd9\x01\x08'
p3202
tp3203
Rp3204
sg11
F712.0
sg12
F730.0
sa(dp3205
g2
I13040600
sg3
F772.0
sg4
F737.0
sg5
F762.0
sg6
g7
(S'\x07\xd9\x01\x07'
p3206
tp3207
Rp3208
sg11
F762.0
sg12
F745.0
sa(dp3209
g2
I12958300
sg3
F767.0
sg4
F741.0
sg5
F744.0
sg6
g7
(S'\x07\xd9\x01\x06'
p3210
tp3211
Rp3212
sg11
F744.0
sg12
F756.0
sa(dp3213
g2
I8384600
sg3
F776.0
sg4
F763.0
sg5
F766.0
sg6
g7
(S'\x07\xd9\x01\x05'
p3214
tp3215
Rp3216
sg11
F766.0
sg12
F769.0
sa(dp3217
g2
I3712800
sg3
F733.0
sg4
F725.0
sg5
F729.0
sg6
g7
(S'\x07\xd8\x0c\x1e'
p3218
tp3219
Rp3220
sg11
F729.0
sg12
F730.0
sa(dp3221
g2
I6391400
sg3
F740.0
sg4
F719.0
sg5
F734.0
sg6
g7
(S'\x07\xd8\x0c\x1d'
p3222
tp3223
Rp3224
sg11
F734.0
sg12
F730.0
sa(dp3225
g2
I5916500
sg3
F732.0
sg4
F715.0
sg5
F731.0
sg6
g7
(S'\x07\xd8\x0c\x1a'
p3226
tp3227
Rp3228
sg11
F731.0
sg12
F728.0
sa(dp3229
g2
I6427900
sg3
F730.0
sg4
F707.0
sg5
F718.0
sg6
g7
(S'\x07\xd8\x0c\x19'
p3230
tp3231
Rp3232
sg11
F718.0
sg12
F719.0
sa(dp3233
g2
I15829400
sg3
F749.0
sg4
F711.0
sg5
F711.0
sg6
g7
(S'\x07\xd8\x0c\x18'
p3234
tp3235
Rp3236
sg11
F711.0
sg12
F737.0
sa(dp3237
g2
I25070000
sg3
F753.0
sg4
F700.0
sg5
F752.0
sg6
g7
(S'\x07\xd8\x0c\x16'
p3238
tp3239
Rp3240
sg11
F752.0
sg12
F700.0
sa(dp3241
g2
I30311200
sg3
F720.0
sg4
F670.0
sg5
F699.0
sg6
g7
(S'\x07\xd8\x0c\x13'
p3242
tp3243
Rp3244
sg11
F699.0
sg12
F677.0
sa(dp3245
g2
I17556700
sg3
F678.0
sg4
F628.0
sg5
F665.0
sg6
g7
(S'\x07\xd8\x0c\x12'
p3246
tp3247
Rp3248
sg11
F665.0
sg12
F635.0
sa(dp3249
g2
I22167800
sg3
F669.0
sg4
F612.0
sg5
F639.0
sg6
g7
(S'\x07\xd8\x0c\x11'
p3250
tp3251
Rp3252
sg11
F639.0
sg12
F668.0
sa(dp3253
g2
I15998800
sg3
F664.0
sg4
F640.0
sg5
F641.0
sg6
g7
(S'\x07\xd8\x0c\x10'
p3254
tp3255
Rp3256
sg11
F641.0
sg12
F650.0
sa(dp3257
g2
I25024700
sg3
F691.0
sg4
F646.0
sg5
F670.0
sg6
g7
(S'\x07\xd8\x0c\x0f'
p3258
tp3259
Rp3260
sg11
F670.0
sg12
F646.0
sa(dp3261
g2
I23737200
sg3
F704.0
sg4
F652.0
sg5
F666.0
sg6
g7
(S'\x07\xd8\x0c\x0c'
p3262
tp3263
Rp3264
sg11
F666.0
sg12
F698.0
sa(dp3265
g2
I17710400
sg3
F733.0
sg4
F695.0
sg5
F718.0
sg6
g7
(S'\x07\xd8\x0c\x0b'
p3266
tp3267
Rp3268
sg11
F718.0
sg12
F700.0
sa(dp3269
g2
I24623600
sg3
F713.0
sg4
F669.0
sg5
F701.0
sg6
g7
(S'\x07\xd8\x0c\n'
p3270
tp3271
Rp3272
sg11
F701.0
sg12
F710.0
sa(dp3273
g2
I43282700
sg3
F715.0
sg4
F660.0
sg5
F715.0
sg6
g7
(S'\x07\xd8\x0c\t'
p3274
tp3275
Rp3276
sg11
F715.0
sg12
F661.0
sa(dp3277
g2
I17360900
sg3
F637.0
sg4
F604.0
sg5
F631.0
sg6
g7
(S'\x07\xd8\x0c\x08'
p3278
tp3279
Rp3280
sg11
F631.0
sg12
F610.0
sa(dp3281
g2
I24175400
sg3
F620.0
sg4
F589.0
sg5
F611.0
sg6
g7
(S'\x07\xd8\x0c\x05'
p3282
tp3283
Rp3284
sg11
F611.0
sg12
F607.0
sa(dp3285
g2
I21447700
sg3
F630.0
sg4
F586.0
sg5
F587.0
sg6
g7
(S'\x07\xd8\x0c\x04'
p3286
tp3287
Rp3288
sg11
F587.0
sg12
F628.0
sa(dp3289
g2
I13597800
sg3
F631.0
sg4
F612.0
sg5
F618.0
sg6
g7
(S'\x07\xd8\x0c\x03'
p3290
tp3291
Rp3292
sg11
F618.0
sg12
F625.0
sa(dp3293
g2
I23589300
sg3
F639.0
sg4
F606.0
sg5
F612.0
sg6
g7
(S'\x07\xd8\x0c\x02'
p3294
tp3295
Rp3296
sg11
F612.0
sg12
F621.0
sa(dp3297
g2
I11894100
sg3
F691.0
sg4
F670.0
sg5
F678.0
sg6
g7
(S'\x07\xd8\x0c\x01'
p3298
tp3299
Rp3300
sg11
F678.0
sg12
F690.0
sa(dp3301
g2
I16110100
sg3
F693.0
sg4
F665.0
sg5
F688.0
sg6
g7
(S'\x07\xd8\x0b\x1c'
p3302
tp3303
Rp3304
sg11
F688.0
sg12
F685.0
sa(dp3305
g2
I17084200
sg3
F694.0
sg4
F666.0
sg5
F680.0
sg6
g7
(S'\x07\xd8\x0b\x1b'
p3306
tp3307
Rp3308
sg11
F680.0
sg12
F666.0
sa(dp3309
g2
I18545600
sg3
F678.0
sg4
F645.0
sg5
F646.0
sg6
g7
(S'\x07\xd8\x0b\x1a'
p3310
tp3311
Rp3312
sg11
F646.0
sg12
F667.0
sa(dp3313
g2
I27009300
sg3
F705.0
sg4
F663.0
sg5
F693.0
sg6
g7
(S'\x07\xd8\x0b\x19'
p3314
tp3315
Rp3316
sg11
F693.0
sg12
F705.0
sa(dp3317
g2
I48654200
sg3
F657.0
sg4
F607.0
sg5
F645.0
sg6
g7
(S'\x07\xd8\x0b\x15'
p3318
tp3319
Rp3320
sg11
F645.0
sg12
F616.0
sa(dp3321
g2
I30836600
sg3
F704.0
sg4
F649.0
sg5
F666.0
sg6
g7
(S'\x07\xd8\x0b\x14'
p3322
tp3323
Rp3324
sg11
F666.0
sg12
F703.0
sa(dp3325
g2
I17613500
sg3
F795.0
sg4
F734.0
sg5
F749.0
sg6
g7
(S'\x07\xd8\x0b\x13'
p3326
tp3327
Rp3328
sg11
F749.0
sg12
F786.0
sa(dp3329
g2
I24845100
sg3
F817.0
sg4
F775.0
sg5
F776.0
sg6
g7
(S'\x07\xd8\x0b\x12'
p3330
tp3331
Rp3332
sg11
F776.0
sg12
F815.0
sa(dp3333
g2
I11442100
sg3
F875.0
sg4
F810.0
sg5
F837.0
sg6
g7
(S'\x07\xd8\x0b\x11'
p3334
tp3335
Rp3336
sg11
F837.0
sg12
F850.0
sa(dp3337
g2
I13599500
sg3
F898.0
sg4
F850.0
sg5
F861.0
sg6
g7
(S'\x07\xd8\x0b\x0e'
p3338
tp3339
Rp3340
sg11
F861.0
sg12
F898.0
sa(dp3341
g2
I16551200
sg3
F877.0
sg4
F837.0
sg5
F855.0
sg6
g7
(S'\x07\xd8\x0b\r'
p3342
tp3343
Rp3344
sg11
F855.0
sg12
F870.0
sa(dp3345
g2
I14475800
sg3
F924.0
sg4
F896.0
sg5
F905.0
sg6
g7
(S'\x07\xd8\x0b\x0c'
p3346
tp3347
Rp3348
sg11
F905.0
sg12
F915.0
sa(dp3349
g2
I11647800
sg3
F978.0
sg4
F940.0
sg5
F940.0
sg6
g7
(S'\x07\xd8\x0b\x0b'
p3350
tp3351
Rp3352
sg11
F940.0
sg12
F970.0
sa(dp3353
g2
I10941700
sg3
F1017.0
sg4
F962.0
sg5
F975.0
sg6
g7
(S'\x07\xd8\x0b\n'
p3354
tp3355
Rp3356
sg11
F975.0
sg12
F1010.0
sa(dp3357
g2
I18571300
sg3
F985.0
sg4
F887.0
sg5
F948.0
sg6
g7
(S'\x07\xd8\x0b\x07'
p3358
tp3359
Rp3360
sg11
F948.0
sg12
F900.0
sa(dp3361
g2
I16329900
sg3
F968.0
sg4
F923.0
sg5
F948.0
sg6
g7
(S'\x07\xd8\x0b\x06'
p3362
tp3363
Rp3364
sg11
F948.0
sg12
F957.0
sa(dp3365
g2
I18843600
sg3
F1027.0
sg4
F969.0
sg5
F1027.0
sg6
g7
(S'\x07\xd8\x0b\x05'
p3366
tp3367
Rp3368
sg11
F1027.0
sg12
F980.0
sa(dp3369
g2
I17000900
sg3
F944.0
sg4
F914.0
sg5
F927.0
sg6
g7
(S'\x07\xd8\x0b\x04'
p3370
tp3371
Rp3372
sg11
F927.0
sg12
F942.0
sa(dp3373
g2
I20923000
sg3
F950.0
sg4
F901.0
sg5
F902.0
sg6
g7
(S'\x07\xd8\n\x1f'
p3374
tp3375
Rp3376
sg11
F902.0
sg12
F936.0
sa(dp3377
g2
I26297200
sg3
F961.0
sg4
F882.0
sg5
F961.0
sg6
g7
(S'\x07\xd8\n\x1e'
p3378
tp3379
Rp3380
sg11
F961.0
sg12
F890.0
sa(dp3381
g2
I39118700
sg3
F964.0
sg4
F806.0
sg5
F861.0
sg6
g7
(S'\x07\xd8\n\x1d'
p3382
tp3383
Rp3384
sg11
F861.0
sg12
F936.0
sa(dp3385
g2
I20518900
sg3
F939.0
sg4
F835.0
sg5
F906.0
sg6
g7
(S'\x07\xd8\n\x1c'
p3386
tp3387
Rp3388
sg11
F906.0
sg12
F897.0
sa(dp3389
g2
I22649200
sg3
F1053.0
sg4
F898.0
sg5
F904.0
sg6
g7
(S'\x07\xd8\n\x1b'
p3390
tp3391
Rp3392
sg11
F904.0
sg12
F1015.0
sa(dp3393
g2
I19101000
sg3
F1153.0
sg4
F1040.0
sg5
F1055.0
sg6
g7
(S'\x07\xd8\n\x18'
p3394
tp3395
Rp3396
sg11
F1055.0
sg12
F1147.0
sa(dp3397
g2
I18828100
sg3
F1180.0
sg4
F1137.0
sg5
F1179.0
sg6
g7
(S'\x07\xd8\n\x17'
p3398
tp3399
Rp3400
sg11
F1179.0
sg12
F1152.0
sa(dp3401
g2
I11995100
sg3
F1303.0
sg4
F1232.0
sg5
F1232.0
sg6
g7
(S'\x07\xd8\n\x16'
p3402
tp3403
Rp3404
sg11
F1232.0
sg12
F1300.0
sa(dp3405
g2
I13798900
sg3
F1348.0
sg4
F1304.0
sg5
F1345.0
sg6
g7
(S'\x07\xd8\n\x15'
p3406
tp3407
Rp3408
sg11
F1345.0
sg12
F1312.0
sa(dp3409
g2
I16733400
sg3
F1288.0
sg4
F1246.0
sg5
F1262.0
sg6
g7
(S'\x07\xd8\n\x14'
p3410
tp3411
Rp3412
sg11
F1262.0
sg12
F1286.0
sa(dp3413
g2
I17232000
sg3
F1277.0
sg4
F1242.0
sg5
F1266.0
sg6
g7
(S'\x07\xd8\n\x11'
p3414
tp3415
Rp3416
sg11
F1266.0
sg12
F1270.0
sa(dp3417
g2
I20683200
sg3
F1284.0
sg4
F1213.0
sg5
F1215.0
sg6
g7
(S'\x07\xd8\n\x10'
p3418
tp3419
Rp3420
sg11
F1215.0
sg12
F1281.0
sa(dp3421
g2
I18977700
sg3
F1430.0
sg4
F1357.0
sg5
F1413.0
sg6
g7
(S'\x07\xd8\n\x0f'
p3422
tp3423
Rp3424
sg11
F1413.0
sg12
F1375.0
sa(dp3425
g2
I18613300
sg3
F1425.0
sg4
F1376.0
sg5
F1425.0
sg6
g7
(S'\x07\xd8\n\x0e'
p3426
tp3427
Rp3428
sg11
F1425.0
sg12
F1405.0
sa(dp3429
g2
I24599900
sg3
F1288.0
sg4
F1110.0
sg5
F1225.0
sg6
g7
(S'\x07\xd8\n\n'
p3430
tp3431
Rp3432
sg11
F1225.0
sg12
F1130.0
sa(dp3433
g2
I19282900
sg3
F1287.0
sg4
F1185.0
sg5
F1229.0
sg6
g7
(S'\x07\xd8\n\t'
p3434
tp3435
Rp3436
sg11
F1229.0
sg12
F1191.0
sa(dp3437
g2
I17604900
sg3
F1223.0
sg4
F1162.0
sg5
F1171.0
sg6
g7
(S'\x07\xd8\n\x08'
p3438
tp3439
Rp3440
sg11
F1171.0
sg12
F1200.0
sa(dp3441
g2
I18231600
sg3
F1287.0
sg4
F1156.0
sg5
F1250.0
sg6
g7
(S'\x07\xd8\n\x07'
p3442
tp3443
Rp3444
sg11
F1250.0
sg12
F1190.0
sa(dp3445
g2
I20037500
sg3
F1343.0
sg4
F1219.0
sg5
F1241.0
sg6
g7
(S'\x07\xd8\n\x06'
p3446
tp3447
Rp3448
sg11
F1241.0
sg12
F1337.0
sa(dp3449
g2
I15769700
sg3
F1380.0
sg4
F1322.0
sg5
F1345.0
sg6
g7
(S'\x07\xd8\n\x03'
p3450
tp3451
Rp3452
sg11
F1345.0
sg12
F1368.0
sa(dp3453
g2
I15359600
sg3
F1429.0
sg4
F1328.0
sg5
F1348.0
sg6
g7
(S'\x07\xd8\n\x02'
p3454
tp3455
Rp3456
sg11
F1348.0
sg12
F1413.0
sa(dp3457
g2
I18365700
sg3
F1410.0
sg4
F1367.0
sg5
F1405.0
sg6
g7
(S'\x07\xd8\n\x01'
p3458
tp3459
Rp3460
sg11
F1405.0
sg12
F1386.0
sa(dp3461
g2
I20708000
sg3
F1365.0
sg4
F1300.0
sg5
F1326.0
sg6
g7
(S'\x07\xd8\t\x1e'
p3462
tp3463
Rp3464
sg11
F1326.0
sg12
F1300.0
sa(dp3465
g2
I11854600
sg3
F1491.0
sg4
F1430.0
sg5
F1431.0
sg6
g7
(S'\x07\xd8\t\x1d'
p3466
tp3467
Rp3468
sg11
F1431.0
sg12
F1475.0
sa(dp3469
g2
I11560300
sg3
F1492.0
sg4
F1436.0
sg5
F1468.0
sg6
g7
(S'\x07\xd8\t\x1a'
p3470
tp3471
Rp3472
sg11
F1468.0
sg12
F1463.0
sa(dp3473
g2
I18549400
sg3
F1486.0
sg4
F1452.0
sg5
F1461.0
sg6
g7
(S'\x07\xd8\t\x19'
p3474
tp3475
Rp3476
sg11
F1461.0
sg12
F1470.0
sa(dp3477
g2
I36444500
sg3
F1536.0
sg4
F1455.0
sg5
F1505.0
sg6
g7
(S'\x07\xd8\t\x18'
p3478
tp3479
Rp3480
sg11
F1505.0
sg12
F1470.0
sa(dp3481
g2
I26613800
sg3
F1441.0
sg4
F1388.0
sg5
F1430.0
sg6
g7
(S'\x07\xd8\t\x16'
p3482
tp3483
Rp3484
sg11
F1430.0
sg12
F1425.0
sa(dp3485
g2
I23657200
sg3
F1305.0
sg4
F1230.0
sg5
F1305.0
sg6
g7
(S'\x07\xd8\t\x13'
p3486
tp3487
Rp3488
sg11
F1305.0
sg12
F1231.0
sa(dp3489
g2
I21496500
sg3
F1208.0
sg4
F1176.0
sg5
F1191.0
sg6
g7
(S'\x07\xd8\t\x12'
p3490
tp3491
Rp3492
sg11
F1191.0
sg12
F1184.0
sa(dp3493
g2
I19110400
sg3
F1340.0
sg4
F1264.0
sg5
F1273.0
sg6
g7
(S'\x07\xd8\t\x11'
p3494
tp3495
Rp3496
sg11
F1273.0
sg12
F1340.0
sa(dp3497
g2
I20123400
sg3
F1316.0
sg4
F1276.0
sg5
F1303.0
sg6
g7
(S'\x07\xd8\t\x10'
p3498
tp3499
Rp3500
sg11
F1303.0
sg12
F1285.0
sa(dp3501
g2
I22529900
sg3
F1452.0
sg4
F1398.0
sg5
F1445.0
sg6
g7
(S'\x07\xd8\t\x0c'
p3502
tp3503
Rp3504
sg11
F1445.0
sg12
F1443.0
sa(dp3505
g2
I15457000
sg3
F1483.0
sg4
F1436.0
sg5
F1440.0
sg6
g7
(S'\x07\xd8\t\x0b'
p3506
tp3507
Rp3508
sg11
F1440.0
sg12
F1471.0
sa(dp3509
g2
I16059800
sg3
F1544.0
sg4
F1446.0
sg5
F1531.0
sg6
g7
(S'\x07\xd8\t\n'
p3510
tp3511
Rp3512
sg11
F1531.0
sg12
F1455.0
sa(dp3513
g2
I15460600
sg3
F1488.0
sg4
F1457.0
sg5
F1484.0
sg6
g7
(S'\x07\xd8\t\t'
p3514
tp3515
Rp3516
sg11
F1484.0
sg12
F1471.0
sa(dp3517
g2
I25089700
sg3
F1523.0
sg4
F1454.0
sg5
F1501.0
sg6
g7
(S'\x07\xd8\t\x08'
p3518
tp3519
Rp3520
sg11
F1501.0
sg12
F1468.0
sa(dp3521
g2
I11975400
sg3
F1383.0
sg4
F1365.0
sg5
F1368.0
sg6
g7
(S'\x07\xd8\t\x05'
p3522
tp3523
Rp3524
sg11
F1368.0
sg12
F1369.0
sa(dp3525
g2
I8600300
sg3
F1442.0
sg4
F1410.0
sg5
F1411.0
sg6
g7
(S'\x07\xd8\t\x04'
p3526
tp3527
Rp3528
sg11
F1411.0
sg12
F1440.0
sa(dp3529
g2
I9566400
sg3
F1468.0
sg4
F1429.0
sg5
F1440.0
sg6
g7
(S'\x07\xd8\t\x03'
p3530
tp3531
Rp3532
sg11
F1440.0
sg12
F1459.0
sa(dp3533
g2
I12319400
sg3
F1482.0
sg4
F1425.0
sg5
F1439.0
sg6
g7
(S'\x07\xd8\t\x02'
p3534
tp3535
Rp3536
sg11
F1439.0
sg12
F1430.0
sa(dp3537
g2
I5691500
sg3
F1442.0
sg4
F1421.0
sg5
F1423.0
sg6
g7
(S'\x07\xd8\t\x01'
p3538
tp3539
Rp3540
sg11
F1423.0
sg12
F1431.0
sa(dp3541
g2
I11639000
sg3
F1467.0
sg4
F1434.0
sg5
F1465.0
sg6
g7
(S'\x07\xd8\x08\x1d'
p3542
tp3543
Rp3544
sg11
F1465.0
sg12
F1436.0
sa(dp3545
g2
I6427400
sg3
F1436.0
sg4
F1409.0
sg5
F1413.0
sg6
g7
(S'\x07\xd8\x08\x1c'
p3546
tp3547
Rp3548
sg11
F1413.0
sg12
F1435.0
sa(dp3549
g2
I6568700
sg3
F1425.0
sg4
F1407.0
sg5
F1420.0
sg6
g7
(S'\x07\xd8\x08\x1b'
p3550
tp3551
Rp3552
sg11
F1420.0
sg12
F1410.0
sa(dp3553
g2
I8127600
sg3
F1427.0
sg4
F1401.0
sg5
F1420.0
sg6
g7
(S'\x07\xd8\x08\x1a'
p3554
tp3555
Rp3556
sg11
F1420.0
sg12
F1406.0
sa(dp3557
g2
I11545300
sg3
F1465.0
sg4
F1439.0
sg5
F1450.0
sg6
g7
(S'\x07\xd8\x08\x19'
p3558
tp3559
Rp3560
sg11
F1450.0
sg12
F1443.0
sa(dp3561
g2
I11047500
sg3
F1431.0
sg4
F1403.0
sg5
F1408.0
sg6
g7
(S'\x07\xd8\x08\x16'
p3562
tp3563
Rp3564
sg11
F1408.0
sg12
F1430.0
sa(dp3565
g2
I11088500
sg3
F1475.0
sg4
F1438.0
sg5
F1440.0
sg6
g7
(S'\x07\xd8\x08\x15'
p3566
tp3567
Rp3568
sg11
F1440.0
sg12
F1472.0
sa(dp3569
g2
I8578800
sg3
F1478.0
sg4
F1452.0
sg5
F1464.0
sg6
g7
(S'\x07\xd8\x08\x14'
p3570
tp3571
Rp3572
sg11
F1464.0
sg12
F1461.0
sa(dp3573
g2
I9822600
sg3
F1500.0
sg4
F1474.0
sg5
F1483.0
sg6
g7
(S'\x07\xd8\x08\x13'
p3574
tp3575
Rp3576
sg11
F1483.0
sg12
F1495.0
sa(dp3577
g2
I7166100
sg3
F1535.0
sg4
F1489.0
sg5
F1523.0
sg6
g7
(S'\x07\xd8\x08\x12'
p3578
tp3579
Rp3580
sg11
F1523.0
sg12
F1495.0
sa(dp3581
g2
I6740100
sg3
F1510.0
sg4
F1483.0
sg5
F1505.0
sg6
g7
(S'\x07\xd8\x08\x0f'
p3582
tp3583
Rp3584
sg11
F1505.0
sg12
F1484.0
sa(dp3585
g2
I9718900
sg3
F1504.0
sg4
F1474.0
sg5
F1474.0
sg6
g7
(S'\x07\xd8\x08\x0e'
p3586
tp3587
Rp3588
sg11
F1474.0
sg12
F1495.0
sa(dp3589
g2
I10909500
sg3
F1551.0
sg4
F1504.0
sg5
F1505.0
sg6
g7
(S'\x07\xd8\x08\r'
p3590
tp3591
Rp3592
sg11
F1505.0
sg12
F1535.0
sa(dp3593
g2
I9279500
sg3
F1592.0
sg4
F1556.0
sg5
F1574.0
sg6
g7
(S'\x07\xd8\x08\x0c'
p3594
tp3595
Rp3596
sg11
F1574.0
sg12
F1585.0
sa(dp3597
g2
I9149800
sg3
F1586.0
sg4
F1549.0
sg5
F1577.0
sg6
g7
(S'\x07\xd8\x08\x0b'
p3598
tp3599
Rp3600
sg11
F1577.0
sg12
F1550.0
sa(dp3601
g2
I9633800
sg3
F1561.0
sg4
F1500.0
sg5
F1534.0
sg6
g7
(S'\x07\xd8\x08\x08'
p3602
tp3603
Rp3604
sg11
F1534.0
sg12
F1540.0
sa(dp3605
g2
I9688300
sg3
F1571.0
sg4
F1522.0
sg5
F1540.0
sg6
g7
(S'\x07\xd8\x08\x07'
p3606
tp3607
Rp3608
sg11
F1540.0
sg12
F1571.0
sa(dp3609
g2
I12205800
sg3
F1575.0
sg4
F1527.0
sg5
F1570.0
sg6
g7
(S'\x07\xd8\x08\x06'
p3610
tp3611
Rp3612
sg11
F1570.0
sg12
F1540.0
sa(dp3613
g2
I9438900
sg3
F1515.0
sg4
F1485.0
sg5
F1493.0
sg6
g7
(S'\x07\xd8\x08\x05'
p3614
tp3615
Rp3616
sg11
F1493.0
sg12
F1489.0
sa(dp3617
g2
I8501800
sg3
F1518.0
sg4
F1482.0
sg5
F1485.0
sg6
g7
(S'\x07\xd8\x08\x04'
p3618
tp3619
Rp3620
sg11
F1485.0
sg12
F1511.0
sa(dp3621
g2
I10836800
sg3
F1548.0
sg4
F1507.0
sg5
F1515.0
sg6
g7
(S'\x07\xd8\x08\x01'
p3622
tp3623
Rp3624
sg11
F1515.0
sg12
F1546.0
sa(dp3625
g2
I12157200
sg3
F1598.0
sg4
F1530.0
sg5
F1576.0
sg6
g7
(S'\x07\xd8\x07\x1f'
p3626
tp3627
Rp3628
sg11
F1576.0
sg12
F1590.0
sa(dp3629
g2
I15404800
sg3
F1598.0
sg4
F1544.0
sg5
F1598.0
sg6
g7
(S'\x07\xd8\x07\x1e'
p3630
tp3631
Rp3632
sg11
F1598.0
sg12
F1590.0
sa(dp3633
g2
I10188100
sg3
F1543.0
sg4
F1512.0
sg5
F1543.0
sg6
g7
(S'\x07\xd8\x07\x1d'
p3634
tp3635
Rp3636
sg11
F1543.0
sg12
F1530.0
sa(dp3637
g2
I7018600
sg3
F1625.0
sg4
F1584.0
sg5
F1589.0
sg6
g7
(S'\x07\xd8\x07\x1c'
p3638
tp3639
Rp3640
sg11
F1589.0
sg12
F1605.0
sa(dp3641
g2
I12807100
sg3
F1649.0
sg4
F1589.0
sg5
F1604.0
sg6
g7
(S'\x07\xd8\x07\x19'
p3642
tp3643
Rp3644
sg11
F1604.0
sg12
F1648.0
sa(dp3645
g2
I14969400
sg3
F1695.0
sg4
F1646.0
sg5
F1695.0
sg6
g7
(S'\x07\xd8\x07\x18'
p3646
tp3647
Rp3648
sg11
F1695.0
sg12
F1656.0
sa(dp3649
g2
I12896900
sg3
F1648.0
sg4
F1605.0
sg5
F1626.0
sg6
g7
(S'\x07\xd8\x07\x17'
p3650
tp3651
Rp3652
sg11
F1626.0
sg12
F1610.0
sa(dp3653
g2
I9517000
sg3
F1586.0
sg4
F1543.0
sg5
F1585.0
sg6
g7
(S'\x07\xd8\x07\x16'
p3654
tp3655
Rp3656
sg11
F1585.0
sg12
F1573.0
sa(dp3657
g2
I11728600
sg3
F1593.0
sg4
F1530.0
sg5
F1534.0
sg6
g7
(S'\x07\xd8\x07\x12'
p3658
tp3659
Rp3660
sg11
F1534.0
sg12
F1591.0
sa(dp3661
g2
I13757200
sg3
F1545.0
sg4
F1503.0
sg5
F1531.0
sg6
g7
(S'\x07\xd8\x07\x11'
p3662
tp3663
Rp3664
sg11
F1531.0
sg12
F1510.0
sa(dp3665
g2
I11987100
sg3
F1474.0
sg4
F1447.0
sg5
F1458.0
sg6
g7
(S'\x07\xd8\x07\x10'
p3666
tp3667
Rp3668
sg11
F1458.0
sg12
F1456.0
sa(dp3669
g2
I13747400
sg3
F1500.0
sg4
F1453.0
sg5
F1459.0
sg6
g7
(S'\x07\xd8\x07\x0f'
p3670
tp3671
Rp3672
sg11
F1459.0
sg12
F1493.0
sa(dp3673
g2
I10962700
sg3
F1582.0
sg4
F1514.0
sg5
F1531.0
sg6
g7
(S'\x07\xd8\x07\x0e'
p3674
tp3675
Rp3676
sg11
F1531.0
sg12
F1514.0
sa(dp3677
g2
I14696200
sg3
F1542.0
sg4
F1490.0
sg5
F1527.0
sg6
g7
(S'\x07\xd8\x07\x0b'
p3678
tp3679
Rp3680
sg11
F1527.0
sg12
F1524.0
sa(dp3681
g2
I9566800
sg3
F1534.0
sg4
F1502.0
sg5
F1527.0
sg6
g7
(S'\x07\xd8\x07\n'
p3682
tp3683
Rp3684
sg11
F1527.0
sg12
F1515.0
sa(dp3685
g2
I10435700
sg3
F1552.0
sg4
F1506.0
sg5
F1515.0
sg6
g7
(S'\x07\xd8\x07\t'
p3686
tp3687
Rp3688
sg11
F1515.0
sg12
F1538.0
sa(dp3689
g2
I9705200
sg3
F1547.0
sg4
F1502.0
sg5
F1503.0
sg6
g7
(S'\x07\xd8\x07\x08'
p3690
tp3691
Rp3692
sg11
F1503.0
sg12
F1543.0
sa(dp3693
g2
I9044200
sg3
F1578.0
sg4
F1516.0
sg5
F1576.0
sg6
g7
(S'\x07\xd8\x07\x07'
p3694
tp3695
Rp3696
sg11
F1576.0
sg12
F1529.0
sa(dp3697
g2
I9368000
sg3
F1550.0
sg4
F1498.0
sg5
F1533.0
sg6
g7
(S'\x07\xd8\x07\x04'
p3698
tp3699
Rp3700
sg11
F1533.0
sg12
F1540.0
sa(dp3701
g2
I12654000
sg3
F1556.0
sg4
F1500.0
sg5
F1550.0
sg6
g7
(S'\x07\xd8\x07\x03'
p3702
tp3703
Rp3704
sg11
F1550.0
sg12
F1514.0
sa(dp3705
g2
I11681300
sg3
F1590.0
sg4
F1516.0
sg5
F1536.0
sg6
g7
(S'\x07\xd8\x07\x02'
p3706
tp3707
Rp3708
sg11
F1536.0
sg12
F1589.0
sa(dp3709
g2
I7390700
sg3
F1596.0
sg4
F1561.0
sg5
F1564.0
sg6
g7
(S'\x07\xd8\x07\x01'
p3710
tp3711
Rp3712
sg11
F1564.0
sg12
F1567.0
sa(dp3713
g2
I9531300
sg3
F1620.0
sg4
F1565.0
sg5
F1573.0
sg6
g7
(S'\x07\xd8\x06\x1e'
p3714
tp3715
Rp3716
sg11
F1573.0
sg12
F1611.0
sa(dp3717
g2
I10784300
sg3
F1592.0
sg4
F1574.0
sg5
F1586.0
sg6
g7
(S'\x07\xd8\x06\x1b'
p3718
tp3719
Rp3720
sg11
F1586.0
sg12
F1576.0
sa(dp3721
g2
I12699600
sg3
F1654.0
sg4
F1610.0
sg5
F1625.0
sg6
g7
(S'\x07\xd8\x06\x1a'
p3722
tp3723
Rp3724
sg11
F1625.0
sg12
F1617.0
sa(dp3725
g2
I9225800
sg3
F1649.0
sg4
F1605.0
sg5
F1641.0
sg6
g7
(S'\x07\xd8\x06\x19'
p3726
tp3727
Rp3728
sg11
F1641.0
sg12
F1620.0
sa(dp3729
g2
I7707000
sg3
F1653.0
sg4
F1615.0
sg5
F1650.0
sg6
g7
(S'\x07\xd8\x06\x18'
p3730
tp3731
Rp3732
sg11
F1650.0
sg12
F1620.0
sa(dp3733
g2
I11304100
sg3
F1654.0
sg4
F1623.0
sg5
F1638.0
sg6
g7
(S'\x07\xd8\x06\x17'
p3734
tp3735
Rp3736
sg11
F1638.0
sg12
F1625.0
sa(dp3737
g2
I8888800
sg3
F1712.0
sg4
F1671.0
sg5
F1674.0
sg6
g7
(S'\x07\xd8\x06\x14'
p3738
tp3739
Rp3740
sg11
F1674.0
sg12
F1690.0
sa(dp3741
g2
I12374700
sg3
F1724.0
sg4
F1691.0
sg5
F1700.0
sg6
g7
(S'\x07\xd8\x06\x13'
p3742
tp3743
Rp3744
sg11
F1700.0
sg12
F1715.0
sa(dp3745
g2
I7742800
sg3
F1772.0
sg4
F1752.0
sg5
F1770.0
sg6
g7
(S'\x07\xd8\x06\x12'
p3746
tp3747
Rp3748
sg11
F1770.0
sg12
F1755.0
sa(dp3749
g2
I7091700
sg3
F1792.0
sg4
F1761.0
sg5
F1784.0
sg6
g7
(S'\x07\xd8\x06\x11'
p3750
tp3751
Rp3752
sg11
F1784.0
sg12
F1780.0
sa(dp3753
g2
I7723500
sg3
F1788.0
sg4
F1733.0
sg5
F1788.0
sg6
g7
(S'\x07\xd8\x06\x10'
p3754
tp3755
Rp3756
sg11
F1788.0
sg12
F1750.0
sa(dp3757
g2
I13417700
sg3
F1742.0
sg4
F1704.0
sg5
F1736.0
sg6
g7
(S'\x07\xd8\x06\r'
p3758
tp3759
Rp3760
sg11
F1736.0
sg12
F1740.0
sa(dp3761
g2
I10748600
sg3
F1732.0
sg4
F1705.0
sg5
F1710.0
sg6
g7
(S'\x07\xd8\x06\x0c'
p3762
tp3763
Rp3764
sg11
F1710.0
sg12
F1731.0
sa(dp3765
g2
I8713800
sg3
F1780.0
sg4
F1730.0
sg5
F1748.0
sg6
g7
(S'\x07\xd8\x06\x0b'
p3766
tp3767
Rp3768
sg11
F1748.0
sg12
F1780.0
sa(dp3769
g2
I11651000
sg3
F1803.0
sg4
F1752.0
sg5
F1752.0
sg6
g7
(S'\x07\xd8\x06\n'
p3770
tp3771
Rp3772
sg11
F1752.0
sg12
F1798.0
sa(dp3773
g2
I15216100
sg3
F1820.0
sg4
F1791.0
sg5
F1795.0
sg6
g7
(S'\x07\xd8\x06\t'
p3774
tp3775
Rp3776
sg11
F1795.0
sg12
F1801.0
sa(dp3777
g2
I14200100
sg3
F1918.0
sg4
F1886.0
sg5
F1889.0
sg6
g7
(S'\x07\xd8\x06\x06'
p3778
tp3779
Rp3780
sg11
F1889.0
sg12
F1900.0
sa(dp3781
g2
I8946900
sg3
F1864.0
sg4
F1831.0
sg5
F1852.0
sg6
g7
(S'\x07\xd8\x06\x05'
p3782
tp3783
Rp3784
sg11
F1852.0
sg12
F1860.0
sa(dp3785
g2
I12659700
sg3
F1881.0
sg4
F1852.0
sg5
F1875.0
sg6
g7
(S'\x07\xd8\x06\x04'
p3786
tp3787
Rp3788
sg11
F1875.0
sg12
F1880.0
sa(dp3789
g2
I19754000
sg3
F1881.0
sg4
F1836.0
sg5
F1853.0
sg6
g7
(S'\x07\xd8\x06\x03'
p3790
tp3791
Rp3792
sg11
F1853.0
sg12
F1850.0
sa(dp3793
g2
I19403200
sg3
F1886.0
sg4
F1804.0
sg5
F1880.0
sg6
g7
(S'\x07\xd8\x06\x02'
p3794
tp3795
Rp3796
sg11
F1880.0
sg12
F1850.0
sa(dp3797
g2
I12233000
sg3
F1806.0
sg4
F1782.0
sg5
F1791.0
sg6
g7
(S'\x07\xd8\x05\x1e'
p3798
tp3799
Rp3800
sg11
F1791.0
sg12
F1790.0
sa(dp3801
g2
I12132300
sg3
F1783.0
sg4
F1730.0
sg5
F1777.0
sg6
g7
(S'\x07\xd8\x05\x1d'
p3802
tp3803
Rp3804
sg11
F1777.0
sg12
F1730.0
sa(dp3805
g2
I11311500
sg3
F1776.0
sg4
F1721.0
sg5
F1723.0
sg6
g7
(S'\x07\xd8\x05\x1c'
p3806
tp3807
Rp3808
sg11
F1723.0
sg12
F1745.0
sa(dp3809
g2
I10752400
sg3
F1765.0
sg4
F1695.0
sg5
F1754.0
sg6
g7
(S'\x07\xd8\x05\x1b'
p3810
tp3811
Rp3812
sg11
F1754.0
sg12
F1696.0
sa(dp3813
g2
I8918400
sg3
F1722.0
sg4
F1689.0
sg5
F1689.0
sg6
g7
(S'\x07\xd8\x05\x1a'
p3814
tp3815
Rp3816
sg11
F1689.0
sg12
F1710.0
sa(dp3817
g2
I12114500
sg3
F1783.0
sg4
F1721.0
sg5
F1748.0
sg6
g7
(S'\x07\xd8\x05\x17'
p3818
tp3819
Rp3820
sg11
F1748.0
sg12
F1753.0
sa(dp3821
g2
I10686400
sg3
F1760.0
sg4
F1683.0
sg5
F1760.0
sg6
g7
(S'\x07\xd8\x05\x16'
p3822
tp3823
Rp3824
sg11
F1760.0
sg12
F1685.0
sa(dp3825
g2
I15300900
sg3
F1755.0
sg4
F1712.0
sg5
F1727.0
sg6
g7
(S'\x07\xd8\x05\x15'
p3826
tp3827
Rp3828
sg11
F1727.0
sg12
F1748.0
sa(dp3829
g2
I9289500
sg3
F1817.0
sg4
F1780.0
sg5
F1794.0
sg6
g7
(S'\x07\xd8\x05\x14'
p3830
tp3831
Rp3832
sg11
F1794.0
sg12
F1805.0
sa(dp3833
g2
I6886400
sg3
F1842.0
sg4
F1806.0
sg5
F1825.0
sg6
g7
(S'\x07\xd8\x05\x13'
p3834
tp3835
Rp3836
sg11
F1825.0
sg12
F1830.0
sa(dp3837
g2
I10968500
sg3
F1851.0
sg4
F1810.0
sg5
F1829.0
sg6
g7
(S'\x07\xd8\x05\x10'
p3838
tp3839
Rp3840
sg11
F1829.0
sg12
F1847.0
sa(dp3841
g2
I14115400
sg3
F1825.0
sg4
F1759.0
sg5
F1798.0
sg6
g7
(S'\x07\xd8\x05\x0f'
p3842
tp3843
Rp3844
sg11
F1798.0
sg12
F1784.0
sa(dp3845
g2
I13687300
sg3
F1783.0
sg4
F1717.0
sg5
F1755.0
sg6
g7
(S'\x07\xd8\x05\x0e'
p3846
tp3847
Rp3848
sg11
F1755.0
sg12
F1783.0
sa(dp3849
g2
I12203600
sg3
F1805.0
sg4
F1763.0
sg5
F1790.0
sg6
g7
(S'\x07\xd8\x05\r'
p3850
tp3851
Rp3852
sg11
F1790.0
sg12
F1800.0
sa(dp3853
g2
I10057400
sg3
F1779.0
sg4
F1728.0
sg5
F1760.0
sg6
g7
(S'\x07\xd8\x05\x0c'
p3854
tp3855
Rp3856
sg11
F1760.0
sg12
F1730.0
sa(dp3857
g2
I8998400
sg3
F1864.0
sg4
F1784.0
sg5
F1790.0
sg6
g7
(S'\x07\xd8\x05\t'
p3858
tp3859
Rp3860
sg11
F1790.0
sg12
F1855.0
sa(dp3861
g2
I11888700
sg3
F1847.0
sg4
F1818.0
sg5
F1825.0
sg6
g7
(S'\x07\xd8\x05\x08'
p3862
tp3863
Rp3864
sg11
F1825.0
sg12
F1847.0
sa(dp3865
g2
I15409100
sg3
F1907.0
sg4
F1865.0
sg5
F1881.0
sg6
g7
(S'\x07\xd8\x05\x07'
p3866
tp3867
Rp3868
sg11
F1881.0
sg12
F1865.0
sa(dp3869
g2
I13351100
sg3
F1843.0
sg4
F1809.0
sg5
F1835.0
sg6
g7
(S'\x07\xd8\x05\x02'
p3870
tp3871
Rp3872
sg11
F1835.0
sg12
F1840.0
sa(dp3873
g2
I16600900
sg3
F1804.0
sg4
F1737.0
sg5
F1761.0
sg6
g7
(S'\x07\xd8\x05\x01'
p3874
tp3875
Rp3876
sg11
F1761.0
sg12
F1778.0
sa(dp3877
g2
I29508400
sg3
F1848.0
sg4
F1766.0
sg5
F1808.0
sg6
g7
(S'\x07\xd8\x04\x1e'
p3878
tp3879
Rp3880
sg11
F1808.0
sg12
F1770.0
sa(dp3881
g2
I22160900
sg3
F1787.0
sg4
F1685.0
sg5
F1747.0
sg6
g7
(S'\x07\xd8\x04\x1c'
p3882
tp3883
Rp3884
sg11
F1747.0
sg12
F1700.0
sa(dp3885
g2
I14815800
sg3
F1680.0
sg4
F1601.0
sg5
F1661.0
sg6
g7
(S'\x07\xd8\x04\x19'
p3886
tp3887
Rp3888
sg11
F1661.0
sg12
F1602.0
sa(dp3889
g2
I9419100
sg3
F1628.0
sg4
F1593.0
sg5
F1600.0
sg6
g7
(S'\x07\xd8\x04\x18'
p3890
tp3891
Rp3892
sg11
F1600.0
sg12
F1618.0
sa(dp3893
g2
I15715000
sg3
F1624.0
sg4
F1554.0
sg5
F1612.0
sg6
g7
(S'\x07\xd8\x04\x17'
p3894
tp3895
Rp3896
sg11
F1612.0
sg12
F1554.0
sa(dp3897
g2
I12443600
sg3
F1666.0
sg4
F1635.0
sg5
F1639.0
sg6
g7
(S'\x07\xd8\x04\x16'
p3898
tp3899
Rp3900
sg11
F1639.0
sg12
F1640.0
sa(dp3901
g2
I12912400
sg3
F1716.0
sg4
F1689.0
sg5
F1705.0
sg6
g7
(S'\x07\xd8\x04\x15'
p3902
tp3903
Rp3904
sg11
F1705.0
sg12
F1700.0
sa(dp3905
g2
I9886800
sg3
F1656.0
sg4
F1605.0
sg5
F1653.0
sg6
g7
(S'\x07\xd8\x04\x12'
p3906
tp3907
Rp3908
sg11
F1653.0
sg12
F1634.0
sa(dp3909
g2
I14674900
sg3
F1652.0
sg4
F1635.0
sg5
F1639.0
sg6
g7
(S'\x07\xd8\x04\x11'
p3910
tp3911
Rp3912
sg11
F1639.0
sg12
F1643.0
sa(dp3913
g2
I15191900
sg3
F1603.0
sg4
F1560.0
sg5
F1580.0
sg6
g7
(S'\x07\xd8\x04\x10'
p3914
tp3915
Rp3916
sg11
F1580.0
sg12
F1570.0
sa(dp3917
g2
I18466100
sg3
F1543.0
sg4
F1478.0
sg5
F1530.0
sg6
g7
(S'\x07\xd8\x04\x0f'
p3918
tp3919
Rp3920
sg11
F1530.0
sg12
F1484.0
sa(dp3921
g2
I17469600
sg3
F1502.0
sg4
F1475.0
sg5
F1483.0
sg6
g7
(S'\x07\xd8\x04\x0e'
p3922
tp3923
Rp3924
sg11
F1483.0
sg12
F1500.0
sa(dp3925
g2
I21813700
sg3
F1564.0
sg4
F1513.0
sg5
F1560.0
sg6
g7
(S'\x07\xd8\x04\x0b'
p3926
tp3927
Rp3928
sg11
F1560.0
sg12
F1521.0
sa(dp3929
g2
I11655500
sg3
F1593.0
sg4
F1545.0
sg5
F1551.0
sg6
g7
(S'\x07\xd8\x04\n'
p3930
tp3931
Rp3932
sg11
F1551.0
sg12
F1562.0
sa(dp3933
g2
I10708700
sg3
F1613.0
sg4
F1544.0
sg5
F1569.0
sg6
g7
(S'\x07\xd8\x04\t'
p3934
tp3935
Rp3936
sg11
F1569.0
sg12
F1582.0
sa(dp3937
g2
I14766700
sg3
F1663.0
sg4
F1596.0
sg5
F1612.0
sg6
g7
(S'\x07\xd8\x04\x08'
p3938
tp3939
Rp3940
sg11
F1612.0
sg12
F1662.0
sa(dp3941
g2
I11487600
sg3
F1714.0
sg4
F1646.0
sg5
F1703.0
sg6
g7
(S'\x07\xd8\x04\x07'
p3942
tp3943
Rp3944
sg11
F1703.0
sg12
F1687.0
sa(dp3945
g2
I14658900
sg3
F1730.0
sg4
F1684.0
sg5
F1693.0
sg6
g7
(S'\x07\xd8\x04\x04'
p3946
tp3947
Rp3948
sg11
F1693.0
sg12
F1703.0
sa(dp3949
g2
I23252800
sg3
F1707.0
sg4
F1627.0
sg5
F1705.0
sg6
g7
(S'\x07\xd8\x04\x03'
p3950
tp3951
Rp3952
sg11
F1705.0
sg12
F1643.0
sa(dp3953
g2
I23393100
sg3
F1645.0
sg4
F1580.0
sg5
F1635.0
sg6
g7
(S'\x07\xd8\x04\x02'
p3954
tp3955
Rp3956
sg11
F1635.0
sg12
F1587.0
sa(dp3957
g2
I11507200
sg3
F1519.0
sg4
F1481.0
sg5
F1491.0
sg6
g7
(S'\x07\xd8\x04\x01'
p3958
tp3959
Rp3960
sg11
F1491.0
sg12
F1507.0
sa(dp3961
g2
I12299300
sg3
F1530.0
sg4
F1480.0
sg5
F1490.0
sg6
g7
(S'\x07\xd8\x03\x1f'
p3962
tp3963
Rp3964
sg11
F1490.0
sg12
F1505.0
sa(dp3965
g2
I10531400
sg3
F1556.0
sg4
F1482.0
sg5
F1543.0
sg6
g7
(S'\x07\xd8\x03\x1c'
p3966
tp3967
Rp3968
sg11
F1543.0
sg12
F1505.0
sa(dp3969
g2
I8756900
sg3
F1549.0
sg4
F1510.0
sg5
F1516.0
sg6
g7
(S'\x07\xd8\x03\x1b'
p3970
tp3971
Rp3972
sg11
F1516.0
sg12
F1540.0
sa(dp3973
g2
I10936800
sg3
F1611.0
sg4
F1538.0
sg5
F1570.0
sg6
g7
(S'\x07\xd8\x03\x1a'
p3974
tp3975
Rp3976
sg11
F1570.0
sg12
F1597.0
sa(dp3977
g2
I14703000
sg3
F1631.0
sg4
F1574.0
sg5
F1613.0
sg6
g7
(S'\x07\xd8\x03\x19'
p3978
tp3979
Rp3980
sg11
F1613.0
sg12
F1615.0
sa(dp3981
g2
I9452800
sg3
F1605.0
sg4
F1569.0
sg5
F1594.0
sg6
g7
(S'\x07\xd8\x03\x18'
p3982
tp3983
Rp3984
sg11
F1594.0
sg12
F1587.0
sa(dp3985
g2
I12742000
sg3
F1606.0
sg4
F1560.0
sg5
F1588.0
sg6
g7
(S'\x07\xd8\x03\x15'
p3986
tp3987
Rp3988
sg11
F1588.0
sg12
F1600.0
sa(dp3989
g2
I26317400
sg3
F1554.0
sg4
F1496.0
sg5
F1549.0
sg6
g7
(S'\x07\xd8\x03\x13'
p3990
tp3991
Rp3992
sg11
F1549.0
sg12
F1505.0
sa(dp3993
g2
I20406600
sg3
F1443.0
sg4
F1401.0
sg5
F1425.0
sg6
g7
(S'\x07\xd8\x03\x12'
p3994
tp3995
Rp3996
sg11
F1425.0
sg12
F1414.0
sa(dp3997
g2
I14593700
sg3
F1464.0
sg4
F1404.0
sg5
F1413.0
sg6
g7
(S'\x07\xd8\x03\x11'
p3998
tp3999
Rp4000
sg11
F1413.0
sg12
F1452.0
sa(dp4001
g2
I18611300
sg3
F1527.0
sg4
F1450.0
sg5
F1478.0
sg6
g7
(S'\x07\xd8\x03\x0e'
p4002
tp4003
Rp4004
sg11
F1478.0
sg12
F1497.0
sa(dp4005
g2
I15858600
sg3
F1587.0
sg4
F1502.0
sg5
F1527.0
sg6
g7
(S'\x07\xd8\x03\r'
p4006
tp4007
Rp4008
sg11
F1527.0
sg12
F1587.0
sa(dp4009
g2
I16544700
sg3
F1627.0
sg4
F1581.0
sg5
F1587.0
sg6
g7
(S'\x07\xd8\x03\x0c'
p4010
tp4011
Rp4012
sg11
F1587.0
sg12
F1627.0
sa(dp4013
g2
I18978800
sg3
F1489.0
sg4
F1444.0
sg5
F1487.0
sg6
g7
(S'\x07\xd8\x03\x0b'
p4014
tp4015
Rp4016
sg11
F1487.0
sg12
F1452.0
sa(dp4017
g2
I8644200
sg3
F1535.0
sg4
F1500.0
sg5
F1502.0
sg6
g7
(S'\x07\xd8\x03\n'
p4018
tp4019
Rp4020
sg11
F1502.0
sg12
F1535.0
sa(dp4021
g2
I12217400
sg3
F1567.0
sg4
F1527.0
sg5
F1535.0
sg6
g7
(S'\x07\xd8\x03\x07'
p4022
tp4023
Rp4024
sg11
F1535.0
sg12
F1550.0
sa(dp4025
g2
I9654200
sg3
F1653.0
sg4
F1597.0
sg5
F1627.0
sg6
g7
(S'\x07\xd8\x03\x06'
p4026
tp4027
Rp4028
sg11
F1627.0
sg12
F1610.0
sa(dp4029
g2
I9476700
sg3
F1617.0
sg4
F1583.0
sg5
F1597.0
sg6
g7
(S'\x07\xd8\x03\x05'
p4030
tp4031
Rp4032
sg11
F1597.0
sg12
F1600.0
sa(dp4033
g2
I10897800
sg3
F1656.0
sg4
F1593.0
sg5
F1606.0
sg6
g7
(S'\x07\xd8\x03\x04'
p4034
tp4035
Rp4036
sg11
F1606.0
sg12
F1652.0
sa(dp4037
g2
I13339000
sg3
F1664.0
sg4
F1589.0
sg5
F1635.0
sg6
g7
(S'\x07\xd8\x03\x03'
p4038
tp4039
Rp4040
sg11
F1635.0
sg12
F1608.0
sa(dp4041
g2
I14334500
sg3
F1739.0
sg4
F1676.0
sg5
F1685.0
sg6
g7
(S'\x07\xd8\x02\x1d'
p4042
tp4043
Rp4044
sg11
F1685.0
sg12
F1739.0
sa(dp4045
g2
I6255100
sg3
F1785.0
sg4
F1752.0
sg5
F1772.0
sg6
g7
(S'\x07\xd8\x02\x1c'
p4046
tp4047
Rp4048
sg11
F1772.0
sg12
F1753.0
sa(dp4049
g2
I10236500
sg3
F1829.0
sg4
F1776.0
sg5
F1792.0
sg6
g7
(S'\x07\xd8\x02\x1b'
p4050
tp4051
Rp4052
sg11
F1792.0
sg12
F1812.0
sa(dp4053
g2
I20029900
sg3
F1832.0
sg4
F1787.0
sg5
F1796.0
sg6
g7
(S'\x07\xd8\x02\x1a'
p4054
tp4055
Rp4056
sg11
F1796.0
sg12
F1800.0
sa(dp4057
g2
I13365500
sg3
F1753.0
sg4
F1689.0
sg5
F1741.0
sg6
g7
(S'\x07\xd8\x02\x19'
p4058
tp4059
Rp4060
sg11
F1741.0
sg12
F1689.0
sa(dp4061
g2
I12859000
sg3
F1727.0
sg4
F1664.0
sg5
F1687.0
sg6
g7
(S'\x07\xd8\x02\x16'
p4062
tp4063
Rp4064
sg11
F1687.0
sg12
F1687.0
sa(dp4065
g2
I14548900
sg3
F1733.0
sg4
F1702.0
sg5
F1713.0
sg6
g7
(S'\x07\xd8\x02\x15'
p4066
tp4067
Rp4068
sg11
F1713.0
sg12
F1709.0
sa(dp4069
g2
I19877200
sg3
F1749.0
sg4
F1646.0
sg5
F1652.0
sg6
g7
(S'\x07\xd8\x02\x14'
p4070
tp4071
Rp4072
sg11
F1652.0
sg12
F1697.0
sa(dp4073
g2
I16956900
sg3
F1713.0
sg4
F1675.0
sg5
F1698.0
sg6
g7
(S'\x07\xd8\x02\x13'
p4074
tp4075
Rp4076
sg11
F1698.0
sg12
F1679.0
sa(dp4077
g2
I11052300
sg3
F1655.0
sg4
F1606.0
sg5
F1640.0
sg6
g7
(S'\x07\xd8\x02\x12'
p4078
tp4079
Rp4080
sg11
F1640.0
sg12
F1625.0
sa(dp4081
g2
I16282200
sg3
F1669.0
sg4
F1572.0
sg5
F1641.0
sg6
g7
(S'\x07\xd8\x02\x0f'
p4082
tp4083
Rp4084
sg11
F1641.0
sg12
F1589.0
sa(dp4085
g2
I9547200
sg3
F1600.0
sg4
F1570.0
sg5
F1589.0
sg6
g7
(S'\x07\xd8\x02\x0e'
p4086
tp4087
Rp4088
sg11
F1589.0
sg12
F1589.0
sa(dp4089
g2
I9189000
sg3
F1554.0
sg4
F1519.0
sg5
F1524.0
sg6
g7
(S'\x07\xd8\x02\r'
p4090
tp4091
Rp4092
sg11
F1524.0
sg12
F1540.0
sa(dp4093
g2
I10802900
sg3
F1516.0
sg4
F1471.0
sg5
F1501.0
sg6
g7
(S'\x07\xd8\x02\x0c'
p4094
tp4095
Rp4096
sg11
F1501.0
sg12
F1500.0
sa(dp4097
g2
I9019600
sg3
F1568.0
sg4
F1500.0
sg5
F1516.0
sg6
g7
(S'\x07\xd8\x02\x08'
p4098
tp4099
Rp4100
sg11
F1516.0
sg12
F1543.0
sa(dp4101
g2
I10078000
sg3
F1550.0
sg4
F1484.0
sg5
F1536.0
sg6
g7
(S'\x07\xd8\x02\x07'
p4102
tp4103
Rp4104
sg11
F1536.0
sg12
F1531.0
sa(dp4105
g2
I11849100
sg3
F1550.0
sg4
F1530.0
sg5
F1538.0
sg6
g7
(S'\x07\xd8\x02\x06'
p4106
tp4107
Rp4108
sg11
F1538.0
sg12
F1532.0
sa(dp4109
g2
I11231200
sg3
F1621.0
sg4
F1575.0
sg5
F1609.0
sg6
g7
(S'\x07\xd8\x02\x05'
p4110
tp4111
Rp4112
sg11
F1609.0
sg12
F1590.0
sa(dp4113
g2
I12712700
sg3
F1647.0
sg4
F1606.0
sg5
F1626.0
sg6
g7
(S'\x07\xd8\x02\x04'
p4114
tp4115
Rp4116
sg11
F1626.0
sg12
F1616.0
sa(dp4117
g2
I14078100
sg3
F1615.0
sg4
F1530.0
sg5
F1556.0
sg6
g7
(S'\x07\xd8\x02\x01'
p4118
tp4119
Rp4120
sg11
F1556.0
sg12
F1549.0
sa(dp4121
g2
I17226200
sg3
F1598.0
sg4
F1509.0
sg5
F1573.0
sg6
g7
(S'\x07\xd8\x01\x1f'
p4122
tp4123
Rp4124
sg11
F1573.0
sg12
F1517.0
sa(dp4125
g2
I10699400
sg3
F1640.0
sg4
F1601.0
sg5
F1607.0
sg6
g7
(S'\x07\xd8\x01\x1e'
p4126
tp4127
Rp4128
sg11
F1607.0
sg12
F1632.0
sa(dp4129
g2
I11716000
sg3
F1642.0
sg4
F1583.0
sg5
F1602.0
sg6
g7
(S'\x07\xd8\x01\x1d'
p4130
tp4131
Rp4132
sg11
F1602.0
sg12
F1620.0
sa(dp4133
g2
I13717600
sg3
F1609.0
sg4
F1545.0
sg5
F1566.0
sg6
g7
(S'\x07\xd8\x01\x1c'
p4134
tp4135
Rp4136
sg11
F1566.0
sg12
F1609.0
sa(dp4137
g2
I21527800
sg3
F1637.0
sg4
F1555.0
sg5
F1625.0
sg6
g7
(S'\x07\xd8\x01\x19'
p4138
tp4139
Rp4140
sg11
F1625.0
sg12
F1557.0
sa(dp4141
g2
I26536900
sg3
F1542.0
sg4
F1492.0
sg5
F1527.0
sg6
g7
(S'\x07\xd8\x01\x18'
p4142
tp4143
Rp4144
sg11
F1527.0
sg12
F1520.0
sa(dp4145
g2
I21175400
sg3
F1485.0
sg4
F1438.0
sg5
F1454.0
sg6
g7
(S'\x07\xd8\x01\x17'
p4146
tp4147
Rp4148
sg11
F1454.0
sg12
F1480.0
sa(dp4149
g2
I20499600
sg3
F1433.0
sg4
F1395.0
sg5
F1400.0
sg6
g7
(S'\x07\xd8\x01\x16'
p4150
tp4151
Rp4152
sg11
F1400.0
sg12
F1410.0
sa(dp4153
g2
I16132900
sg3
F1504.0
sg4
F1464.0
sg5
F1473.0
sg6
g7
(S'\x07\xd8\x01\x15'
p4154
tp4155
Rp4156
sg11
F1473.0
sg12
F1476.0
sa(dp4157
g2
I26601300
sg3
F1546.0
sg4
F1430.0
sg5
F1530.0
sg6
g7
(S'\x07\xd8\x01\x12'
p4158
tp4159
Rp4160
sg11
F1530.0
sg12
F1440.0
sa(dp4161
g2
I26666600
sg3
F1538.0
sg4
F1477.0
sg5
F1485.0
sg6
g7
(S'\x07\xd8\x01\x11'
p4162
tp4163
Rp4164
sg11
F1485.0
sg12
F1534.0
sa(dp4165
g2
I21569000
sg3
F1562.0
sg4
F1506.0
sg5
F1522.0
sg6
g7
(S'\x07\xd8\x01\x10'
p4166
tp4167
Rp4168
sg11
F1522.0
sg12
F1526.0
sa(dp4169
g2
I17728700
sg3
F1642.0
sg4
F1585.0
sg5
F1598.0
sg6
g7
(S'\x07\xd8\x01\x0f'
p4170
tp4171
Rp4172
sg11
F1598.0
sg12
F1635.0
sa(dp4173
g2
I25867900
sg3
F1722.0
sg4
F1625.0
sg5
F1644.0
sg6
g7
(S'\x07\xd8\x01\x0b'
p4174
tp4175
Rp4176
sg11
F1644.0
sg12
F1720.0
sa(dp4177
g2
I15017800
sg3
F1773.0
sg4
F1716.0
sg5
F1722.0
sg6
g7
(S'\x07\xd8\x01\n'
p4178
tp4179
Rp4180
sg11
F1722.0
sg12
F1766.0
sa(dp4181
g2
I10899400
sg3
F1800.0
sg4
F1741.0
sg5
F1791.0
sg6
g7
(S'\x07\xd8\x01\t'
p4182
tp4183
Rp4184
sg11
F1791.0
sg12
F1751.0
sa(dp4185
g2
I10780900
sg3
F1789.0
sg4
F1765.0
sg5
F1778.0
sg6
g7
(S'\x07\xd8\x01\x08'
p4186
tp4187
Rp4188
sg11
F1778.0
sg12
F1789.0
sa(dp4189
g2
I9935600
sg3
F1813.0
sg4
F1764.0
sg5
F1789.0
sg6
g7
(S'\x07\xd8\x01\x07'
p4190
tp4191
Rp4192
sg11
F1789.0
sg12
F1788.0
sa(dp4193
g2
I9188200
sg3
F1817.0
sg4
F1790.0
sg5
F1810.0
sg6
g7
(S'\x07\xd8\x01\x04'
p4194
tp4195
Rp4196
sg11
F1810.0
sg12
F1805.0
sa.